---
triple:          'arm64-apple-darwin'
binary-path:     webserv
relocations:
  - { offsetInCU: 0x2DE0, offset: 0x2DE0, size: 0x8, addend: 0x0, symName: __ZNSt3__124__put_character_sequenceB7v160006IcNS_11char_traitsIcEEEERNS_13basic_ostreamIT_T0_EES7_PKS4_m, symObjAddr: 0xFA0, symBinAddr: 0x100001CF4, symSize: 0x1F4 }
  - { offsetInCU: 0x4717, offset: 0x4717, size: 0x8, addend: 0x0, symName: __ZNSt3__1lsB7v160006IcNS_11char_traitsIcEENS_9allocatorIcEEEERNS_13basic_ostreamIT_T0_EES9_RKNS_12basic_stringIS6_S7_T1_EE, symObjAddr: 0x66C, symBinAddr: 0x1000013C0, symSize: 0x4C }
  - { offsetInCU: 0x476F, offset: 0x476F, size: 0x8, addend: 0x0, symName: __ZNSt3__1lsB7v160006INS_11char_traitsIcEEEERNS_13basic_ostreamIcT_EES6_PKc, symObjAddr: 0x6B8, symBinAddr: 0x10000140C, symSize: 0x48 }
  - { offsetInCU: 0x47B5, offset: 0x47B5, size: 0x8, addend: 0x0, symName: __ZNSt3__14endlB7v160006IcNS_11char_traitsIcEEEERNS_13basic_ostreamIT_T0_EES7_, symObjAddr: 0x72C, symBinAddr: 0x100001480, symSize: 0x58 }
  - { offsetInCU: 0x47F5, offset: 0x47F5, size: 0x8, addend: 0x0, symName: __ZNSt3__112__to_addressB7v160006IKcEEPT_S3_, symObjAddr: 0x7AC, symBinAddr: 0x100001500, symSize: 0x14 }
  - { offsetInCU: 0x482A, offset: 0x482A, size: 0x8, addend: 0x0, symName: __ZNSt3__130__libcpp_is_constant_evaluatedB7v160006Ev, symObjAddr: 0x8D8, symBinAddr: 0x10000162C, symSize: 0xC }
  - { offsetInCU: 0x487A, offset: 0x487A, size: 0x8, addend: 0x0, symName: __ZNSt3__119__debug_db_insert_cB7v160006INS_12basic_stringIcNS_11char_traitsIcEENS_9allocatorIcEEEEEEvPT_, symObjAddr: 0xA14, symBinAddr: 0x100001768, symSize: 0x10 }
  - { offsetInCU: 0x48AB, offset: 0x48AB, size: 0x8, addend: 0x0, symName: __ZNSt3__118__constexpr_strlenB7v160006EPKc, symObjAddr: 0xAE0, symBinAddr: 0x100001834, symSize: 0x24 }
  - { offsetInCU: 0x48D7, offset: 0x48D7, size: 0x8, addend: 0x0, symName: __ZNSt3__117__libcpp_allocateB7v160006Emm, symObjAddr: 0xF08, symBinAddr: 0x100001C5C, symSize: 0x28 }
  - { offsetInCU: 0x4914, offset: 0x4914, size: 0x8, addend: 0x0, symName: __ZNSt3__121__libcpp_operator_newB7v160006IJmEEEPvDpT_, symObjAddr: 0xF44, symBinAddr: 0x100001C98, symSize: 0x24 }
  - { offsetInCU: 0x494D, offset: 0x494D, size: 0x8, addend: 0x0, symName: __ZNSt3__116__pad_and_outputB7v160006IcNS_11char_traitsIcEEEENS_19ostreambuf_iteratorIT_T0_EES6_PKS4_S8_S8_RNS_8ios_baseES4_, symObjAddr: 0x1204, symBinAddr: 0x100001F58, symSize: 0x248 }
  - { offsetInCU: 0x4A1C, offset: 0x4A1C, size: 0x8, addend: 0x0, symName: __ZNSt3__19use_facetB7v160006INS_5ctypeIcEEEERKT_RKNS_6localeE, symObjAddr: 0x17BC, symBinAddr: 0x100002510, symSize: 0x2C }
  - { offsetInCU: 0x4EEC, offset: 0x4EEC, size: 0x8, addend: 0x0, symName: __ZSt28__throw_bad_array_new_lengthB7v160006v, symObjAddr: 0xED4, symBinAddr: 0x100001C28, symSize: 0x34 }
  - { offsetInCU: 0x73FB, offset: 0x73FB, size: 0x8, addend: 0x0, symName: __ZN4HarlC2Ev, symObjAddr: 0x0, symBinAddr: 0x100000D54, symSize: 0x14 }
  - { offsetInCU: 0x7425, offset: 0x7425, size: 0x8, addend: 0x0, symName: __ZN4HarlC1Ev, symObjAddr: 0x14, symBinAddr: 0x100000D68, symSize: 0x2C }
  - { offsetInCU: 0x744F, offset: 0x744F, size: 0x8, addend: 0x0, symName: __ZN4HarlD2Ev, symObjAddr: 0x40, symBinAddr: 0x100000D94, symSize: 0x14 }
  - { offsetInCU: 0x7479, offset: 0x7479, size: 0x8, addend: 0x0, symName: __ZN4HarlD1Ev, symObjAddr: 0x54, symBinAddr: 0x100000DA8, symSize: 0x2C }
  - { offsetInCU: 0x74A3, offset: 0x74A3, size: 0x8, addend: 0x0, symName: __ZN4Harl5debugENSt3__112basic_stringIcNS0_11char_traitsIcEENS0_9allocatorIcEEEEz, symObjAddr: 0x80, symBinAddr: 0x100000DD4, symSize: 0x5C }
  - { offsetInCU: 0x74F5, offset: 0x74F5, size: 0x8, addend: 0x0, symName: __ZN4Harl4infoENSt3__112basic_stringIcNS0_11char_traitsIcEENS0_9allocatorIcEEEEz, symObjAddr: 0xDC, symBinAddr: 0x100000E30, symSize: 0x12C }
  - { offsetInCU: 0x7560, offset: 0x7560, size: 0x8, addend: 0x0, symName: __ZNKSt3__112basic_stringIcNS_11char_traitsIcEENS_9allocatorIcEEE5c_strB7v160006Ev, symObjAddr: 0x208, symBinAddr: 0x100000F5C, symSize: 0x24 }
  - { offsetInCU: 0x7584, offset: 0x7584, size: 0x8, addend: 0x0, symName: __ZN4Harl6_writeENSt3__112basic_stringIcNS0_11char_traitsIcEENS0_9allocatorIcEEEES6_, symObjAddr: 0x22C, symBinAddr: 0x100000F80, symSize: 0x17C }
  - { offsetInCU: 0x760C, offset: 0x760C, size: 0x8, addend: 0x0, symName: __ZNSt3__112basic_stringIcNS_11char_traitsIcEENS_9allocatorIcEEEC1B7v160006IDnEEPKc, symObjAddr: 0x3A8, symBinAddr: 0x1000010FC, symSize: 0x34 }
  - { offsetInCU: 0x7648, offset: 0x7648, size: 0x8, addend: 0x0, symName: __ZN4Harl7warningENSt3__112basic_stringIcNS0_11char_traitsIcEENS0_9allocatorIcEEEEz, symObjAddr: 0x3E8, symBinAddr: 0x10000113C, symSize: 0x12C }
  - { offsetInCU: 0x76B3, offset: 0x76B3, size: 0x8, addend: 0x0, symName: __ZN4Harl5errorENSt3__112basic_stringIcNS0_11char_traitsIcEENS0_9allocatorIcEEEEz, symObjAddr: 0x514, symBinAddr: 0x100001268, symSize: 0x12C }
  - { offsetInCU: 0x771E, offset: 0x771E, size: 0x8, addend: 0x0, symName: __ZNSt3__112basic_stringIcNS_11char_traitsIcEENS_9allocatorIcEEEC1B7v160006Ev, symObjAddr: 0x640, symBinAddr: 0x100001394, symSize: 0x2C }
  - { offsetInCU: 0x7746, offset: 0x7746, size: 0x8, addend: 0x0, symName: __ZNSt3__113basic_ostreamIcNS_11char_traitsIcEEElsB7v160006EPFRS3_S4_E, symObjAddr: 0x700, symBinAddr: 0x100001454, symSize: 0x2C }
  - { offsetInCU: 0x7778, offset: 0x7778, size: 0x8, addend: 0x0, symName: __ZNKSt3__112basic_stringIcNS_11char_traitsIcEENS_9allocatorIcEEE4dataB7v160006Ev, symObjAddr: 0x784, symBinAddr: 0x1000014D8, symSize: 0x28 }
  - { offsetInCU: 0x779C, offset: 0x779C, size: 0x8, addend: 0x0, symName: __ZNKSt3__112basic_stringIcNS_11char_traitsIcEENS_9allocatorIcEEE13__get_pointerB7v160006Ev, symObjAddr: 0x7C0, symBinAddr: 0x100001514, symSize: 0x54 }
  - { offsetInCU: 0x77C0, offset: 0x77C0, size: 0x8, addend: 0x0, symName: __ZNKSt3__112basic_stringIcNS_11char_traitsIcEENS_9allocatorIcEEE9__is_longB7v160006Ev, symObjAddr: 0x814, symBinAddr: 0x100001568, symSize: 0x74 }
  - { offsetInCU: 0x77E4, offset: 0x77E4, size: 0x8, addend: 0x0, symName: __ZNKSt3__112basic_stringIcNS_11char_traitsIcEENS_9allocatorIcEEE18__get_long_pointerB7v160006Ev, symObjAddr: 0x888, symBinAddr: 0x1000015DC, symSize: 0x28 }
  - { offsetInCU: 0x7808, offset: 0x7808, size: 0x8, addend: 0x0, symName: __ZNKSt3__112basic_stringIcNS_11char_traitsIcEENS_9allocatorIcEEE19__get_short_pointerB7v160006Ev, symObjAddr: 0x8B0, symBinAddr: 0x100001604, symSize: 0x28 }
  - { offsetInCU: 0x782C, offset: 0x782C, size: 0x8, addend: 0x0, symName: __ZNKSt3__117__compressed_pairINS_12basic_stringIcNS_11char_traitsIcEENS_9allocatorIcEEE5__repES5_E5firstB7v160006Ev, symObjAddr: 0x8E4, symBinAddr: 0x100001638, symSize: 0x24 }
  - { offsetInCU: 0x7850, offset: 0x7850, size: 0x8, addend: 0x0, symName: __ZNKSt3__122__compressed_pair_elemINS_12basic_stringIcNS_11char_traitsIcEENS_9allocatorIcEEE5__repELi0ELb0EE5__getB7v160006Ev, symObjAddr: 0x908, symBinAddr: 0x10000165C, symSize: 0x14 }
  - { offsetInCU: 0x7874, offset: 0x7874, size: 0x8, addend: 0x0, symName: __ZNSt3__114pointer_traitsIPKcE10pointer_toB7v160006ERS1_, symObjAddr: 0x91C, symBinAddr: 0x100001670, symSize: 0x14 }
  - { offsetInCU: 0x7896, offset: 0x7896, size: 0x8, addend: 0x0, symName: __ZNSt3__112basic_stringIcNS_11char_traitsIcEENS_9allocatorIcEEEC2B7v160006IDnEEPKc, symObjAddr: 0x930, symBinAddr: 0x100001684, symSize: 0x60 }
  - { offsetInCU: 0x78D7, offset: 0x78D7, size: 0x8, addend: 0x0, symName: __ZNSt3__117__compressed_pairINS_12basic_stringIcNS_11char_traitsIcEENS_9allocatorIcEEE5__repES5_EC1B7v160006INS_18__default_init_tagESA_EEOT_OT0_, symObjAddr: 0x990, symBinAddr: 0x1000016E4, symSize: 0x3C }
  - { offsetInCU: 0x792D, offset: 0x792D, size: 0x8, addend: 0x0, symName: __ZNSt3__111char_traitsIcE6lengthEPKc, symObjAddr: 0x9CC, symBinAddr: 0x100001720, symSize: 0x48 }
  - { offsetInCU: 0x794F, offset: 0x794F, size: 0x8, addend: 0x0, symName: __ZNSt3__117__compressed_pairINS_12basic_stringIcNS_11char_traitsIcEENS_9allocatorIcEEE5__repES5_EC2B7v160006INS_18__default_init_tagESA_EEOT_OT0_, symObjAddr: 0xA24, symBinAddr: 0x100001778, symSize: 0x3C }
  - { offsetInCU: 0x79A6, offset: 0x79A6, size: 0x8, addend: 0x0, symName: __ZNSt3__122__compressed_pair_elemINS_12basic_stringIcNS_11char_traitsIcEENS_9allocatorIcEEE5__repELi0ELb0EEC2B7v160006ENS_18__default_init_tagE, symObjAddr: 0xA60, symBinAddr: 0x1000017B4, symSize: 0x14 }
  - { offsetInCU: 0x79D8, offset: 0x79D8, size: 0x8, addend: 0x0, symName: __ZNSt3__122__compressed_pair_elemINS_9allocatorIcEELi1ELb1EEC2B7v160006ENS_18__default_init_tagE, symObjAddr: 0xA74, symBinAddr: 0x1000017C8, symSize: 0x2C }
  - { offsetInCU: 0x7A0B, offset: 0x7A0B, size: 0x8, addend: 0x0, symName: __ZNSt3__19allocatorIcEC2B7v160006Ev, symObjAddr: 0xAA0, symBinAddr: 0x1000017F4, symSize: 0x2C }
  - { offsetInCU: 0x7A34, offset: 0x7A34, size: 0x8, addend: 0x0, symName: __ZNSt3__116__non_trivial_ifILb1ENS_9allocatorIcEEEC2B7v160006Ev, symObjAddr: 0xACC, symBinAddr: 0x100001820, symSize: 0x14 }
  - { offsetInCU: 0x7A5B, offset: 0x7A5B, size: 0x8, addend: 0x0, symName: __ZNSt3__112basic_stringIcNS_11char_traitsIcEENS_9allocatorIcEEEC2B7v160006Ev, symObjAddr: 0xB04, symBinAddr: 0x100001858, symSize: 0x44 }
  - { offsetInCU: 0x7A83, offset: 0x7A83, size: 0x8, addend: 0x0, symName: __ZNSt3__112basic_stringIcNS_11char_traitsIcEENS_9allocatorIcEEE14__default_initB7v160006Ev, symObjAddr: 0xB48, symBinAddr: 0x10000189C, symSize: 0xB0 }
  - { offsetInCU: 0x7AD4, offset: 0x7AD4, size: 0x8, addend: 0x0, symName: __ZNSt3__117__compressed_pairINS_12basic_stringIcNS_11char_traitsIcEENS_9allocatorIcEEE5__repES5_E5firstB7v160006Ev, symObjAddr: 0xBF8, symBinAddr: 0x10000194C, symSize: 0x24 }
  - { offsetInCU: 0x7AF8, offset: 0x7AF8, size: 0x8, addend: 0x0, symName: __ZNSt3__112basic_stringIcNS_11char_traitsIcEENS_9allocatorIcEEE11__recommendB7v160006Em, symObjAddr: 0xC1C, symBinAddr: 0x100001970, symSize: 0x9C }
  - { offsetInCU: 0x7B2A, offset: 0x7B2A, size: 0x8, addend: 0x0, symName: __ZNSt3__116allocator_traitsINS_9allocatorIcEEE8allocateB7v160006ERS2_m, symObjAddr: 0xCB8, symBinAddr: 0x100001A0C, symSize: 0x2C }
  - { offsetInCU: 0x7B5C, offset: 0x7B5C, size: 0x8, addend: 0x0, symName: __ZNSt3__112basic_stringIcNS_11char_traitsIcEENS_9allocatorIcEEE7__allocB7v160006Ev, symObjAddr: 0xCE4, symBinAddr: 0x100001A38, symSize: 0x24 }
  - { offsetInCU: 0x7B80, offset: 0x7B80, size: 0x8, addend: 0x0, symName: __ZNSt3__112basic_stringIcNS_11char_traitsIcEENS_9allocatorIcEEE16__begin_lifetimeB7v160006EPcm, symObjAddr: 0xD08, symBinAddr: 0x100001A5C, symSize: 0x14 }
  - { offsetInCU: 0x7BB2, offset: 0x7BB2, size: 0x8, addend: 0x0, symName: __ZNSt3__112basic_stringIcNS_11char_traitsIcEENS_9allocatorIcEEE18__set_long_pointerB7v160006EPc, symObjAddr: 0xD1C, symBinAddr: 0x100001A70, symSize: 0x38 }
  - { offsetInCU: 0x7BE5, offset: 0x7BE5, size: 0x8, addend: 0x0, symName: __ZNSt3__112basic_stringIcNS_11char_traitsIcEENS_9allocatorIcEEE14__set_long_capB7v160006Em, symObjAddr: 0xD54, symBinAddr: 0x100001AA8, symSize: 0x70 }
  - { offsetInCU: 0x7C18, offset: 0x7C18, size: 0x8, addend: 0x0, symName: __ZNSt3__112basic_stringIcNS_11char_traitsIcEENS_9allocatorIcEEE15__set_long_sizeB7v160006Em, symObjAddr: 0xDC4, symBinAddr: 0x100001B18, symSize: 0x38 }
  - { offsetInCU: 0x7C4B, offset: 0x7C4B, size: 0x8, addend: 0x0, symName: __ZNSt3__122__compressed_pair_elemINS_12basic_stringIcNS_11char_traitsIcEENS_9allocatorIcEEE5__repELi0ELb0EE5__getB7v160006Ev, symObjAddr: 0xDFC, symBinAddr: 0x100001B50, symSize: 0x14 }
  - { offsetInCU: 0x7C6F, offset: 0x7C6F, size: 0x8, addend: 0x0, symName: __ZNSt3__112basic_stringIcNS_11char_traitsIcEENS_9allocatorIcEEE10__align_itB7v160006ILm16EEEmm, symObjAddr: 0xE10, symBinAddr: 0x100001B64, symSize: 0x1C }
  - { offsetInCU: 0x7C9C, offset: 0x7C9C, size: 0x8, addend: 0x0, symName: __ZNSt3__19allocatorIcE8allocateB7v160006Em, symObjAddr: 0xE2C, symBinAddr: 0x100001B80, symSize: 0x84 }
  - { offsetInCU: 0x7CD8, offset: 0x7CD8, size: 0x8, addend: 0x0, symName: __ZNSt3__116allocator_traitsINS_9allocatorIcEEE8max_sizeB7v160006IS2_vEEmRKS2_, symObjAddr: 0xEB0, symBinAddr: 0x100001C04, symSize: 0x24 }
  - { offsetInCU: 0x7D05, offset: 0x7D05, size: 0x8, addend: 0x0, symName: __ZNKSt3__19allocatorIcE8max_sizeB7v160006Ev, symObjAddr: 0xF30, symBinAddr: 0x100001C84, symSize: 0x14 }
  - { offsetInCU: 0x7D29, offset: 0x7D29, size: 0x8, addend: 0x0, symName: __ZNSt3__117__compressed_pairINS_12basic_stringIcNS_11char_traitsIcEENS_9allocatorIcEEE5__repES5_E6secondB7v160006Ev, symObjAddr: 0xF68, symBinAddr: 0x100001CBC, symSize: 0x24 }
  - { offsetInCU: 0x7D4D, offset: 0x7D4D, size: 0x8, addend: 0x0, symName: __ZNSt3__122__compressed_pair_elemINS_9allocatorIcEELi1ELb1EE5__getB7v160006Ev, symObjAddr: 0xF8C, symBinAddr: 0x100001CE0, symSize: 0x14 }
  - { offsetInCU: 0x7D71, offset: 0x7D71, size: 0x8, addend: 0x0, symName: __ZNKSt3__112basic_stringIcNS_11char_traitsIcEENS_9allocatorIcEEE4sizeB7v160006Ev, symObjAddr: 0x1194, symBinAddr: 0x100001EE8, symSize: 0x54 }
  - { offsetInCU: 0x7DB3, offset: 0x7DB3, size: 0x8, addend: 0x0, symName: __ZNKSt3__113basic_ostreamIcNS_11char_traitsIcEEE6sentrycvbB7v160006Ev, symObjAddr: 0x11E8, symBinAddr: 0x100001F3C, symSize: 0x1C }
  - { offsetInCU: 0x7DD7, offset: 0x7DD7, size: 0x8, addend: 0x0, symName: __ZNSt3__119ostreambuf_iteratorIcNS_11char_traitsIcEEEC1B7v160006ERNS_13basic_ostreamIcS2_EE, symObjAddr: 0x144C, symBinAddr: 0x1000021A0, symSize: 0x34 }
  - { offsetInCU: 0x7E0E, offset: 0x7E0E, size: 0x8, addend: 0x0, symName: __ZNKSt3__18ios_base5flagsB7v160006Ev, symObjAddr: 0x1480, symBinAddr: 0x1000021D4, symSize: 0x18 }
  - { offsetInCU: 0x7E35, offset: 0x7E35, size: 0x8, addend: 0x0, symName: __ZNKSt3__19basic_iosIcNS_11char_traitsIcEEE4fillB7v160006Ev, symObjAddr: 0x1498, symBinAddr: 0x1000021EC, symSize: 0x64 }
  - { offsetInCU: 0x7E5B, offset: 0x7E5B, size: 0x8, addend: 0x0, symName: __ZNKSt3__119ostreambuf_iteratorIcNS_11char_traitsIcEEE6failedB7v160006Ev, symObjAddr: 0x14FC, symBinAddr: 0x100002250, symSize: 0x24 }
  - { offsetInCU: 0x7E7F, offset: 0x7E7F, size: 0x8, addend: 0x0, symName: __ZNSt3__19basic_iosIcNS_11char_traitsIcEEE8setstateB7v160006Ej, symObjAddr: 0x1520, symBinAddr: 0x100002274, symSize: 0x2C }
  - { offsetInCU: 0x7EB3, offset: 0x7EB3, size: 0x8, addend: 0x0, symName: __ZNKSt3__18ios_base5widthB7v160006Ev, symObjAddr: 0x154C, symBinAddr: 0x1000022A0, symSize: 0x18 }
  - { offsetInCU: 0x7ED9, offset: 0x7ED9, size: 0x8, addend: 0x0, symName: __ZNSt3__115basic_streambufIcNS_11char_traitsIcEEE5sputnB7v160006EPKcl, symObjAddr: 0x1564, symBinAddr: 0x1000022B8, symSize: 0x3C }
  - { offsetInCU: 0x7F19, offset: 0x7F19, size: 0x8, addend: 0x0, symName: __ZNSt3__112basic_stringIcNS_11char_traitsIcEENS_9allocatorIcEEEC1B7v160006Emc, symObjAddr: 0x15A0, symBinAddr: 0x1000022F4, symSize: 0x3C }
  - { offsetInCU: 0x7F60, offset: 0x7F60, size: 0x8, addend: 0x0, symName: __ZNSt3__18ios_base5widthB7v160006El, symObjAddr: 0x15DC, symBinAddr: 0x100002330, symSize: 0x2C }
  - { offsetInCU: 0x7FA4, offset: 0x7FA4, size: 0x8, addend: 0x0, symName: __ZNSt3__112basic_stringIcNS_11char_traitsIcEENS_9allocatorIcEEEC2B7v160006Emc, symObjAddr: 0x1608, symBinAddr: 0x10000235C, symSize: 0x54 }
  - { offsetInCU: 0x7FEA, offset: 0x7FEA, size: 0x8, addend: 0x0, symName: __ZNSt3__119ostreambuf_iteratorIcNS_11char_traitsIcEEEC2B7v160006ERNS_13basic_ostreamIcS2_EE, symObjAddr: 0x165C, symBinAddr: 0x1000023B0, symSize: 0x68 }
  - { offsetInCU: 0x8021, offset: 0x8021, size: 0x8, addend: 0x0, symName: __ZNKSt3__19basic_iosIcNS_11char_traitsIcEEE5rdbufB7v160006Ev, symObjAddr: 0x16C4, symBinAddr: 0x100002418, symSize: 0x24 }
  - { offsetInCU: 0x8047, offset: 0x8047, size: 0x8, addend: 0x0, symName: __ZNKSt3__18ios_base5rdbufB7v160006Ev, symObjAddr: 0x16E8, symBinAddr: 0x10000243C, symSize: 0x18 }
  - { offsetInCU: 0x806B, offset: 0x806B, size: 0x8, addend: 0x0, symName: __ZNSt3__111char_traitsIcE11eq_int_typeEii, symObjAddr: 0x1700, symBinAddr: 0x100002454, symSize: 0x28 }
  - { offsetInCU: 0x809C, offset: 0x809C, size: 0x8, addend: 0x0, symName: __ZNSt3__111char_traitsIcE3eofEv, symObjAddr: 0x1728, symBinAddr: 0x10000247C, symSize: 0x8 }
  - { offsetInCU: 0x80B0, offset: 0x80B0, size: 0x8, addend: 0x0, symName: __ZNKSt3__19basic_iosIcNS_11char_traitsIcEEE5widenB7v160006Ec, symObjAddr: 0x1730, symBinAddr: 0x100002484, symSize: 0x8C }
  - { offsetInCU: 0x811C, offset: 0x811C, size: 0x8, addend: 0x0, symName: __ZNKSt3__15ctypeIcE5widenB7v160006Ec, symObjAddr: 0x17E8, symBinAddr: 0x10000253C, symSize: 0x38 }
  - { offsetInCU: 0x8150, offset: 0x8150, size: 0x8, addend: 0x0, symName: __ZNSt3__18ios_base8setstateB7v160006Ej, symObjAddr: 0x1820, symBinAddr: 0x100002574, symSize: 0x34 }
  - { offsetInCU: 0x8185, offset: 0x8185, size: 0x8, addend: 0x0, symName: __ZNKSt3__112basic_stringIcNS_11char_traitsIcEENS_9allocatorIcEEE15__get_long_sizeB7v160006Ev, symObjAddr: 0x1854, symBinAddr: 0x1000025A8, symSize: 0x28 }
  - { offsetInCU: 0x81A9, offset: 0x81A9, size: 0x8, addend: 0x0, symName: __ZNKSt3__112basic_stringIcNS_11char_traitsIcEENS_9allocatorIcEEE16__get_short_sizeB7v160006Ev, symObjAddr: 0x187C, symBinAddr: 0x1000025D0, symSize: 0x34 }
  - { offsetInCU: 0x26, offset: 0x8267, size: 0x8, addend: 0x0, symName: __ZN14ConnectorEventD2Ev, symObjAddr: 0x0, symBinAddr: 0x100002604, symSize: 0x30 }
  - { offsetInCU: 0x644E, offset: 0xE68F, size: 0x8, addend: 0x0, symName: __ZN14ConnectorEventD2Ev, symObjAddr: 0x0, symBinAddr: 0x100002604, symSize: 0x30 }
  - { offsetInCU: 0x6478, offset: 0xE6B9, size: 0x8, addend: 0x0, symName: __ZN14ConnectorEventD1Ev, symObjAddr: 0x30, symBinAddr: 0x100002634, symSize: 0x2C }
  - { offsetInCU: 0x64A2, offset: 0xE6E3, size: 0x8, addend: 0x0, symName: __ZN14ConnectorEventC2ERKS_, symObjAddr: 0x5C, symBinAddr: 0x100002660, symSize: 0x54 }
  - { offsetInCU: 0x64DA, offset: 0xE71B, size: 0x8, addend: 0x0, symName: __ZN14ConnectorEventC1ERKS_, symObjAddr: 0xB0, symBinAddr: 0x1000026B4, symSize: 0x34 }
  - { offsetInCU: 0x6512, offset: 0xE753, size: 0x8, addend: 0x0, symName: __ZN14ConnectorEventC2ENSt3__112basic_stringIcNS0_11char_traitsIcEENS0_9allocatorIcEEEE, symObjAddr: 0xE4, symBinAddr: 0x1000026E8, symSize: 0x40 }
  - { offsetInCU: 0x654B, offset: 0xE78C, size: 0x8, addend: 0x0, symName: __ZN14ConnectorEventC1ENSt3__112basic_stringIcNS0_11char_traitsIcEENS0_9allocatorIcEEEE, symObjAddr: 0x124, symBinAddr: 0x100002728, symSize: 0x34 }
  - { offsetInCU: 0x6584, offset: 0xE7C5, size: 0x8, addend: 0x0, symName: __ZN14ConnectorEventC2EP7RequestP8Response, symObjAddr: 0x158, symBinAddr: 0x10000275C, symSize: 0x48 }
  - { offsetInCU: 0x65CA, offset: 0xE80B, size: 0x8, addend: 0x0, symName: __ZN14ConnectorEventC1EP7RequestP8Response, symObjAddr: 0x1CC, symBinAddr: 0x1000027A4, symSize: 0x3C }
  - { offsetInCU: 0x6610, offset: 0xE851, size: 0x8, addend: 0x0, symName: __ZN14ConnectorEvent7getTempEv, symObjAddr: 0x208, symBinAddr: 0x1000027E0, symSize: 0x3C }
  - { offsetInCU: 0x26, offset: 0xE8A2, size: 0x8, addend: 0x0, symName: __ZN16ConnectorFactoryC2Ev, symObjAddr: 0x0, symBinAddr: 0x10000281C, symSize: 0x14 }
  - { offsetInCU: 0x5BAE, offset: 0x1442A, size: 0x8, addend: 0x0, symName: __ZN16ConnectorFactoryC2Ev, symObjAddr: 0x0, symBinAddr: 0x10000281C, symSize: 0x14 }
  - { offsetInCU: 0x5BD8, offset: 0x14454, size: 0x8, addend: 0x0, symName: __ZN16ConnectorFactoryC1Ev, symObjAddr: 0x14, symBinAddr: 0x100002830, symSize: 0x2C }
  - { offsetInCU: 0x5C02, offset: 0x1447E, size: 0x8, addend: 0x0, symName: __ZN16ConnectorFactoryD2Ev, symObjAddr: 0x40, symBinAddr: 0x10000285C, symSize: 0x14 }
  - { offsetInCU: 0x5C2C, offset: 0x144A8, size: 0x8, addend: 0x0, symName: __ZN16ConnectorFactoryD1Ev, symObjAddr: 0x54, symBinAddr: 0x100002870, symSize: 0x2C }
  - { offsetInCU: 0x5C56, offset: 0x144D2, size: 0x8, addend: 0x0, symName: __ZN16ConnectorFactory5buildENSt3__112basic_stringIcNS0_11char_traitsIcEENS0_9allocatorIcEEEEi, symObjAddr: 0x80, symBinAddr: 0x10000289C, symSize: 0xDC }
  - { offsetInCU: 0x3611, offset: 0x17B2B, size: 0x8, addend: 0x0, symName: __ZNSt3__17advanceB7v160006INS_21__list_const_iteratorIiPvEEllvEEvRT_T0_, symObjAddr: 0x3B5C, symBinAddr: 0x100005C28, symSize: 0x50 }
  - { offsetInCU: 0x5372, offset: 0x1988C, size: 0x8, addend: 0x0, symName: __ZNSt3__118__debug_db_erase_cB7v160006INS_10__list_impIiNS_9allocatorIiEEEEEEvPT_, symObjAddr: 0x260C, symBinAddr: 0x100004944, symSize: 0x10 }
  - { offsetInCU: 0x53A3, offset: 0x198BD, size: 0x8, addend: 0x0, symName: __ZNSt3__125__debug_db_invalidate_allB7v160006INS_10__list_impIiNS_9allocatorIiEEEEEEvPT_, symObjAddr: 0x27A0, symBinAddr: 0x100004AD8, symSize: 0x10 }
  - { offsetInCU: 0x5407, offset: 0x19921, size: 0x8, addend: 0x0, symName: __ZNSt3__119__libcpp_deallocateB7v160006EPvmm, symObjAddr: 0x2940, symBinAddr: 0x100004C78, symSize: 0x30 }
  - { offsetInCU: 0x5450, offset: 0x1996A, size: 0x8, addend: 0x0, symName: __ZNSt3__127__do_deallocate_handle_sizeB7v160006IJEEEvPvmDpT_, symObjAddr: 0x2970, symBinAddr: 0x100004CA8, symSize: 0x28 }
  - { offsetInCU: 0x5490, offset: 0x199AA, size: 0x8, addend: 0x0, symName: __ZNSt3__124__libcpp_operator_deleteB7v160006IJPvEEEvDpT_, symObjAddr: 0x2998, symBinAddr: 0x100004CD0, symSize: 0x24 }
  - { offsetInCU: 0x54C6, offset: 0x199E0, size: 0x8, addend: 0x0, symName: __ZNSt3__119__debug_db_insert_cB7v160006INS_4listIiNS_9allocatorIiEEEEEEvPT_, symObjAddr: 0x2AAC, symBinAddr: 0x100004DE4, symSize: 0x10 }
  - { offsetInCU: 0x5515, offset: 0x19A2F, size: 0x8, addend: 0x0, symName: __ZNSt3__1neB7v160006ERKNS_21__list_const_iteratorIiPvEES4_, symObjAddr: 0x35F4, symBinAddr: 0x1000056C0, symSize: 0x34 }
  - { offsetInCU: 0x5552, offset: 0x19A6C, size: 0x8, addend: 0x0, symName: __ZNSt3__14nextB7v160006INS_21__list_const_iteratorIiPvEEEENS_9enable_ifIXsr25__is_cpp17_input_iteratorIT_EE5valueES5_E4typeES5_NS_15iterator_traitsIS5_E15difference_typeE, symObjAddr: 0x3654, symBinAddr: 0x100005720, symSize: 0x50 }
  - { offsetInCU: 0x5595, offset: 0x19AAF, size: 0x8, addend: 0x0, symName: __ZNSt3__1eqB7v160006ERKNS_21__list_const_iteratorIiPvEES4_, symObjAddr: 0x3B2C, symBinAddr: 0x100005BF8, symSize: 0x30 }
  - { offsetInCU: 0x55D3, offset: 0x19AED, size: 0x8, addend: 0x0, symName: __ZNSt3__121__convert_to_integralB7v160006El, symObjAddr: 0x3BAC, symBinAddr: 0x100005C78, symSize: 0x14 }
  - { offsetInCU: 0x55FF, offset: 0x19B19, size: 0x8, addend: 0x0, symName: __ZNSt3__19__advanceB7v160006INS_21__list_const_iteratorIiPvEEEEvRT_NS_15iterator_traitsIS4_E15difference_typeENS_26bidirectional_iterator_tagE, symObjAddr: 0x3BC0, symBinAddr: 0x100005C8C, symSize: 0xA4 }
  - { offsetInCU: 0x564A, offset: 0x19B64, size: 0x8, addend: 0x0, symName: __ZNSt3__18distanceB7v160006INS_21__list_const_iteratorIiPvEEEENS_15iterator_traitsIT_E15difference_typeES5_S5_, symObjAddr: 0x3C84, symBinAddr: 0x100005D50, symSize: 0x3C }
  - { offsetInCU: 0x568D, offset: 0x19BA7, size: 0x8, addend: 0x0, symName: __ZNSt3__110__distanceB7v160006INS_21__list_const_iteratorIiPvEEEENS_15iterator_traitsIT_E15difference_typeES5_S5_NS_18input_iterator_tagE, symObjAddr: 0x3D10, symBinAddr: 0x100005DDC, symSize: 0x5C }
  - { offsetInCU: 0x7DE8, offset: 0x1C302, size: 0x8, addend: 0x0, symName: __ZN13HttpConnectorC2Ev, symObjAddr: 0x0, symBinAddr: 0x100002978, symSize: 0xC4 }
  - { offsetInCU: 0x7E12, offset: 0x1C32C, size: 0x8, addend: 0x0, symName: __ZN9ConnectorC2Ev, symObjAddr: 0xC4, symBinAddr: 0x100002A3C, symSize: 0x24 }
  - { offsetInCU: 0x7E41, offset: 0x1C35B, size: 0x8, addend: 0x0, symName: __ZN9netStructC1Ev, symObjAddr: 0xE8, symBinAddr: 0x100002A60, symSize: 0x2C }
  - { offsetInCU: 0x7E6B, offset: 0x1C385, size: 0x8, addend: 0x0, symName: __ZNSt3__14listIiNS_9allocatorIiEEEC1B7v160006Ev, symObjAddr: 0x114, symBinAddr: 0x100002A8C, symSize: 0x2C }
  - { offsetInCU: 0x7E93, offset: 0x1C3AD, size: 0x8, addend: 0x0, symName: __ZN9netStructD1Ev, symObjAddr: 0x140, symBinAddr: 0x100002AB8, symSize: 0x2C }
  - { offsetInCU: 0x7EBD, offset: 0x1C3D7, size: 0x8, addend: 0x0, symName: __ZN13HttpConnectorC1Ev, symObjAddr: 0x178, symBinAddr: 0x100002AE4, symSize: 0x2C }
  - { offsetInCU: 0x7EE7, offset: 0x1C401, size: 0x8, addend: 0x0, symName: __ZN13HttpConnectorD2Ev, symObjAddr: 0x1A4, symBinAddr: 0x100002B10, symSize: 0xB0 }
  - { offsetInCU: 0x7F11, offset: 0x1C42B, size: 0x8, addend: 0x0, symName: __ZNSt3__14listIiNS_9allocatorIiEEED1Ev, symObjAddr: 0x254, symBinAddr: 0x100002BC0, symSize: 0x2C }
  - { offsetInCU: 0x7F3D, offset: 0x1C457, size: 0x8, addend: 0x0, symName: __ZN13HttpConnectorD1Ev, symObjAddr: 0x280, symBinAddr: 0x100002BEC, symSize: 0x2C }
  - { offsetInCU: 0x7F67, offset: 0x1C481, size: 0x8, addend: 0x0, symName: __ZN13HttpConnectorC2ERKS_, symObjAddr: 0x2AC, symBinAddr: 0x100002C18, symSize: 0xFC }
  - { offsetInCU: 0x7F9F, offset: 0x1C4B9, size: 0x8, addend: 0x0, symName: __ZN13HttpConnectoraSERKS_, symObjAddr: 0x3A8, symBinAddr: 0x100002D14, symSize: 0x50 }
  - { offsetInCU: 0x7FD3, offset: 0x1C4ED, size: 0x8, addend: 0x0, symName: __ZN13HttpConnectorC1ERKS_, symObjAddr: 0x3F8, symBinAddr: 0x100002D64, symSize: 0x34 }
  - { offsetInCU: 0x800B, offset: 0x1C525, size: 0x8, addend: 0x0, symName: __ZN13HttpConnector10registerItEP17ConnectorListener, symObjAddr: 0x42C, symBinAddr: 0x100002D98, symSize: 0x20 }
  - { offsetInCU: 0x8040, offset: 0x1C55A, size: 0x8, addend: 0x0, symName: __ZN13HttpConnector12unregisterItEP17ConnectorListener, symObjAddr: 0x44C, symBinAddr: 0x100002DB8, symSize: 0x1C }
  - { offsetInCU: 0x8075, offset: 0x1C58F, size: 0x8, addend: 0x0, symName: __ZN13HttpConnector4initER17ConnectorListener, symObjAddr: 0x468, symBinAddr: 0x100002DD4, symSize: 0x34 }
  - { offsetInCU: 0x80A9, offset: 0x1C5C3, size: 0x8, addend: 0x0, symName: __ZN13HttpConnector16publishAcceptingE14ConnectorEvent, symObjAddr: 0x49C, symBinAddr: 0x100002E08, symSize: 0x84 }
  - { offsetInCU: 0x80DE, offset: 0x1C5F8, size: 0x8, addend: 0x0, symName: __ZN13HttpConnector20publishDataReceivingE14ConnectorEvent, symObjAddr: 0x520, symBinAddr: 0x100002E8C, symSize: 0x84 }
  - { offsetInCU: 0x8113, offset: 0x1C62D, size: 0x8, addend: 0x0, symName: __ZN13HttpConnectorC2ENSt3__112basic_stringIcNS0_11char_traitsIcEENS0_9allocatorIcEEEEi, symObjAddr: 0x5A4, symBinAddr: 0x100002F10, symSize: 0x53C }
  - { offsetInCU: 0x81A1, offset: 0x1C6BB, size: 0x8, addend: 0x0, symName: __ZL12_OSSwapInt16t, symObjAddr: 0xB38, symBinAddr: 0x10000344C, symSize: 0x24 }
  - { offsetInCU: 0x81CE, offset: 0x1C6E8, size: 0x8, addend: 0x0, symName: __ZN13HttpConnectorC1ENSt3__112basic_stringIcNS0_11char_traitsIcEENS0_9allocatorIcEEEEi, symObjAddr: 0xB5C, symBinAddr: 0x100003470, symSize: 0x3C }
  - { offsetInCU: 0x8215, offset: 0x1C72F, size: 0x8, addend: 0x0, symName: __ZN13HttpConnector8doListenEv, symObjAddr: 0xB98, symBinAddr: 0x1000034AC, symSize: 0x80 }
  - { offsetInCU: 0x823B, offset: 0x1C755, size: 0x8, addend: 0x0, symName: __ZN13HttpConnector7_listenEi9netStruct, symObjAddr: 0xC18, symBinAddr: 0x10000352C, symSize: 0x724 }
  - { offsetInCU: 0x83A7, offset: 0x1C8C1, size: 0x8, addend: 0x0, symName: __ZN9netStructC1ERKS_, symObjAddr: 0x133C, symBinAddr: 0x100003C50, symSize: 0x34 }
  - { offsetInCU: 0x83DA, offset: 0x1C8F4, size: 0x8, addend: 0x0, symName: __ZNKSt3__14listIiNS_9allocatorIiEEE4sizeB7v160006Ev, symObjAddr: 0x1370, symBinAddr: 0x100003C84, symSize: 0x28 }
  - { offsetInCU: 0x83FE, offset: 0x1C918, size: 0x8, addend: 0x0, symName: __ZN13HttpConnector18_acceptIncomingConEiRiP6pollfdS0_S0_, symObjAddr: 0x1398, symBinAddr: 0x100003CAC, symSize: 0x324 }
  - { offsetInCU: 0x8487, offset: 0x1C9A1, size: 0x8, addend: 0x0, symName: __ZN13HttpConnector16_onDataReceivingEP6pollfdRi, symObjAddr: 0x16BC, symBinAddr: 0x100003FD0, symSize: 0x488 }
  - { offsetInCU: 0x853C, offset: 0x1CA56, size: 0x8, addend: 0x0, symName: __ZNSt3__14listIiNS_9allocatorIiEEE9push_backERKi, symObjAddr: 0x1B44, symBinAddr: 0x100004458, symSize: 0xFC }
  - { offsetInCU: 0x8590, offset: 0x1CAAA, size: 0x8, addend: 0x0, symName: __ZNSt3__14listIiNS_9allocatorIiEEE6removeERKi, symObjAddr: 0x1C40, symBinAddr: 0x100004554, symSize: 0x230 }
  - { offsetInCU: 0x8610, offset: 0x1CB2A, size: 0x8, addend: 0x0, symName: __ZN9netStructC2Ev, symObjAddr: 0x1E70, symBinAddr: 0x100004784, symSize: 0x30 }
  - { offsetInCU: 0x863F, offset: 0x1CB59, size: 0x8, addend: 0x0, symName: __ZN9netStructD2Ev, symObjAddr: 0x247C, symBinAddr: 0x1000047B4, symSize: 0x30 }
  - { offsetInCU: 0x8669, offset: 0x1CB83, size: 0x8, addend: 0x0, symName: __ZNSt3__14listIiNS_9allocatorIiEEED2Ev, symObjAddr: 0x24AC, symBinAddr: 0x1000047E4, symSize: 0x2C }
  - { offsetInCU: 0x8696, offset: 0x1CBB0, size: 0x8, addend: 0x0, symName: __ZNSt3__110__list_impIiNS_9allocatorIiEEED2Ev, symObjAddr: 0x24D8, symBinAddr: 0x100004810, symSize: 0x34 }
  - { offsetInCU: 0x86C0, offset: 0x1CBDA, size: 0x8, addend: 0x0, symName: __ZNSt3__110__list_impIiNS_9allocatorIiEEE5clearEv, symObjAddr: 0x250C, symBinAddr: 0x100004844, symSize: 0x100 }
  - { offsetInCU: 0x872F, offset: 0x1CC49, size: 0x8, addend: 0x0, symName: __ZNKSt3__110__list_impIiNS_9allocatorIiEEE5emptyB7v160006Ev, symObjAddr: 0x261C, symBinAddr: 0x100004954, symSize: 0x34 }
  - { offsetInCU: 0x8753, offset: 0x1CC6D, size: 0x8, addend: 0x0, symName: __ZNSt3__110__list_impIiNS_9allocatorIiEEE12__node_allocB7v160006Ev, symObjAddr: 0x2650, symBinAddr: 0x100004988, symSize: 0x28 }
  - { offsetInCU: 0x8777, offset: 0x1CC91, size: 0x8, addend: 0x0, symName: __ZNKSt3__110__list_impIiNS_9allocatorIiEEE13__end_as_linkB7v160006Ev, symObjAddr: 0x2678, symBinAddr: 0x1000049B0, symSize: 0x58 }
  - { offsetInCU: 0x879C, offset: 0x1CCB6, size: 0x8, addend: 0x0, symName: __ZNSt3__110__list_impIiNS_9allocatorIiEEE14__unlink_nodesEPNS_16__list_node_baseIiPvEES7_, symObjAddr: 0x26D0, symBinAddr: 0x100004A08, symSize: 0x3C }
  - { offsetInCU: 0x87D0, offset: 0x1CCEA, size: 0x8, addend: 0x0, symName: __ZNSt3__110__list_impIiNS_9allocatorIiEEE4__szB7v160006Ev, symObjAddr: 0x270C, symBinAddr: 0x100004A44, symSize: 0x28 }
  - { offsetInCU: 0x87F4, offset: 0x1CD0E, size: 0x8, addend: 0x0, symName: __ZNSt3__116__list_node_baseIiPvE9__as_nodeB7v160006Ev, symObjAddr: 0x2734, symBinAddr: 0x100004A6C, symSize: 0x24 }
  - { offsetInCU: 0x8819, offset: 0x1CD33, size: 0x8, addend: 0x0, symName: __ZNSt3__116allocator_traitsINS_9allocatorINS_11__list_nodeIiPvEEEEE7destroyB7v160006IivvEEvRS5_PT_, symObjAddr: 0x2758, symBinAddr: 0x100004A90, symSize: 0x14 }
  - { offsetInCU: 0x8853, offset: 0x1CD6D, size: 0x8, addend: 0x0, symName: __ZNSt3__116allocator_traitsINS_9allocatorINS_11__list_nodeIiPvEEEEE10deallocateB7v160006ERS5_PS4_m, symObjAddr: 0x276C, symBinAddr: 0x100004AA4, symSize: 0x34 }
  - { offsetInCU: 0x8893, offset: 0x1CDAD, size: 0x8, addend: 0x0, symName: __ZNKSt3__110__list_impIiNS_9allocatorIiEEE4__szB7v160006Ev, symObjAddr: 0x27B0, symBinAddr: 0x100004AE8, symSize: 0x28 }
  - { offsetInCU: 0x88B7, offset: 0x1CDD1, size: 0x8, addend: 0x0, symName: __ZNKSt3__117__compressed_pairImNS_9allocatorINS_11__list_nodeIiPvEEEEE5firstB7v160006Ev, symObjAddr: 0x27D8, symBinAddr: 0x100004B10, symSize: 0x24 }
  - { offsetInCU: 0x88DC, offset: 0x1CDF6, size: 0x8, addend: 0x0, symName: __ZNKSt3__122__compressed_pair_elemImLi0ELb0EE5__getB7v160006Ev, symObjAddr: 0x27FC, symBinAddr: 0x100004B34, symSize: 0x14 }
  - { offsetInCU: 0x88FF, offset: 0x1CE19, size: 0x8, addend: 0x0, symName: __ZNSt3__117__compressed_pairImNS_9allocatorINS_11__list_nodeIiPvEEEEE6secondB7v160006Ev, symObjAddr: 0x2810, symBinAddr: 0x100004B48, symSize: 0x24 }
  - { offsetInCU: 0x8924, offset: 0x1CE3E, size: 0x8, addend: 0x0, symName: __ZNSt3__122__compressed_pair_elemINS_9allocatorINS_11__list_nodeIiPvEEEELi1ELb1EE5__getB7v160006Ev, symObjAddr: 0x2834, symBinAddr: 0x100004B6C, symSize: 0x14 }
  - { offsetInCU: 0x8948, offset: 0x1CE62, size: 0x8, addend: 0x0, symName: __ZNSt3__126__list_node_pointer_traitsIiPvE26__unsafe_link_pointer_castB7v160006EPNS_16__list_node_baseIiS1_EE, symObjAddr: 0x2848, symBinAddr: 0x100004B80, symSize: 0x14 }
  - { offsetInCU: 0x896A, offset: 0x1CE84, size: 0x8, addend: 0x0, symName: __ZNSt3__116__list_node_baseIiPvE6__selfB7v160006Ev, symObjAddr: 0x285C, symBinAddr: 0x100004B94, symSize: 0x24 }
  - { offsetInCU: 0x8994, offset: 0x1CEAE, size: 0x8, addend: 0x0, symName: __ZNSt3__114pointer_traitsIPNS_16__list_node_baseIiPvEEE10pointer_toB7v160006ERS3_, symObjAddr: 0x2880, symBinAddr: 0x100004BB8, symSize: 0x14 }
  - { offsetInCU: 0x89B5, offset: 0x1CECF, size: 0x8, addend: 0x0, symName: __ZNSt3__117__compressed_pairImNS_9allocatorINS_11__list_nodeIiPvEEEEE5firstB7v160006Ev, symObjAddr: 0x2894, symBinAddr: 0x100004BCC, symSize: 0x24 }
  - { offsetInCU: 0x89DA, offset: 0x1CEF4, size: 0x8, addend: 0x0, symName: __ZNSt3__122__compressed_pair_elemImLi0ELb0EE5__getB7v160006Ev, symObjAddr: 0x28B8, symBinAddr: 0x100004BF0, symSize: 0x14 }
  - { offsetInCU: 0x89FD, offset: 0x1CF17, size: 0x8, addend: 0x0, symName: __ZNSt3__19allocatorINS_11__list_nodeIiPvEEE10deallocateB7v160006EPS3_m, symObjAddr: 0x28CC, symBinAddr: 0x100004C04, symSize: 0x74 }
  - { offsetInCU: 0x8A3D, offset: 0x1CF57, size: 0x8, addend: 0x0, symName: __ZN9netStructC2ERKS_, symObjAddr: 0x29BC, symBinAddr: 0x100004CF4, symSize: 0x48 }
  - { offsetInCU: 0x8A70, offset: 0x1CF8A, size: 0x8, addend: 0x0, symName: __ZNSt3__14listIiNS_9allocatorIiEEEC2B7v160006Ev, symObjAddr: 0x2A04, symBinAddr: 0x100004D3C, symSize: 0x64 }
  - { offsetInCU: 0x8A99, offset: 0x1CFB3, size: 0x8, addend: 0x0, symName: __ZNSt3__110__list_impIiNS_9allocatorIiEEEC2Ev, symObjAddr: 0x2A68, symBinAddr: 0x100004DA0, symSize: 0x44 }
  - { offsetInCU: 0x8AC3, offset: 0x1CFDD, size: 0x8, addend: 0x0, symName: __ZNSt3__116__list_node_baseIiPvEC1B7v160006Ev, symObjAddr: 0x2ABC, symBinAddr: 0x100004DF4, symSize: 0x2C }
  - { offsetInCU: 0x8AF0, offset: 0x1D00A, size: 0x8, addend: 0x0, symName: __ZNSt3__117__compressed_pairImNS_9allocatorINS_11__list_nodeIiPvEEEEEC1B7v160006IiNS_18__default_init_tagEEEOT_OT0_, symObjAddr: 0x2AE8, symBinAddr: 0x100004E20, symSize: 0x3C }
  - { offsetInCU: 0x8B46, offset: 0x1D060, size: 0x8, addend: 0x0, symName: __ZNSt3__116__list_node_baseIiPvEC2B7v160006Ev, symObjAddr: 0x2B24, symBinAddr: 0x100004E5C, symSize: 0x4C }
  - { offsetInCU: 0x8B6E, offset: 0x1D088, size: 0x8, addend: 0x0, symName: __ZNSt3__117__compressed_pairImNS_9allocatorINS_11__list_nodeIiPvEEEEEC2B7v160006IiNS_18__default_init_tagEEEOT_OT0_, symObjAddr: 0x2B70, symBinAddr: 0x100004EA8, symSize: 0x40 }
  - { offsetInCU: 0x8BC4, offset: 0x1D0DE, size: 0x8, addend: 0x0, symName: __ZNSt3__122__compressed_pair_elemImLi0ELb0EEC2B7v160006IivEEOT_, symObjAddr: 0x2BB0, symBinAddr: 0x100004EE8, symSize: 0x24 }
  - { offsetInCU: 0x8C04, offset: 0x1D11E, size: 0x8, addend: 0x0, symName: __ZNSt3__122__compressed_pair_elemINS_9allocatorINS_11__list_nodeIiPvEEEELi1ELb1EEC2B7v160006ENS_18__default_init_tagE, symObjAddr: 0x2BD4, symBinAddr: 0x100004F0C, symSize: 0x2C }
  - { offsetInCU: 0x8C37, offset: 0x1D151, size: 0x8, addend: 0x0, symName: __ZNSt3__19allocatorINS_11__list_nodeIiPvEEEC2B7v160006Ev, symObjAddr: 0x2C00, symBinAddr: 0x100004F38, symSize: 0x2C }
  - { offsetInCU: 0x8C5F, offset: 0x1D179, size: 0x8, addend: 0x0, symName: __ZNSt3__116__non_trivial_ifILb1ENS_9allocatorINS_11__list_nodeIiPvEEEEEC2B7v160006Ev, symObjAddr: 0x2C2C, symBinAddr: 0x100004F64, symSize: 0x14 }
  - { offsetInCU: 0x8C87, offset: 0x1D1A1, size: 0x8, addend: 0x0, symName: __ZNSt3__14listIiNS_9allocatorIiEEE15__allocate_nodeB7v160006ERNS1_INS_11__list_nodeIiPvEEEE, symObjAddr: 0x2EAC, symBinAddr: 0x100004F78, symSize: 0x70 }
  - { offsetInCU: 0x8CCA, offset: 0x1D1E4, size: 0x8, addend: 0x0, symName: __ZNSt3__116allocator_traitsINS_9allocatorINS_11__list_nodeIiPvEEEEE9constructB7v160006IiJRKiEvEEvRS5_PT_DpOT0_, symObjAddr: 0x2F1C, symBinAddr: 0x100004FE8, symSize: 0x34 }
  - { offsetInCU: 0x8D1F, offset: 0x1D239, size: 0x8, addend: 0x0, symName: __ZNKSt3__110unique_ptrINS_11__list_nodeIiPvEENS_22__allocator_destructorINS_9allocatorIS3_EEEEEptB7v160006Ev, symObjAddr: 0x2F50, symBinAddr: 0x10000501C, symSize: 0x28 }
  - { offsetInCU: 0x8D43, offset: 0x1D25D, size: 0x8, addend: 0x0, symName: __ZNSt3__14listIiNS_9allocatorIiEEE20__link_nodes_at_backEPNS_16__list_node_baseIiPvEES7_, symObjAddr: 0x2F78, symBinAddr: 0x100005044, symSize: 0x60 }
  - { offsetInCU: 0x8D88, offset: 0x1D2A2, size: 0x8, addend: 0x0, symName: __ZNKSt3__110unique_ptrINS_11__list_nodeIiPvEENS_22__allocator_destructorINS_9allocatorIS3_EEEEE3getB7v160006Ev, symObjAddr: 0x2FD8, symBinAddr: 0x1000050A4, symSize: 0x28 }
  - { offsetInCU: 0x8DAC, offset: 0x1D2C6, size: 0x8, addend: 0x0, symName: __ZNSt3__111__list_nodeIiPvE9__as_linkB7v160006Ev, symObjAddr: 0x3000, symBinAddr: 0x1000050CC, symSize: 0x24 }
  - { offsetInCU: 0x8DD0, offset: 0x1D2EA, size: 0x8, addend: 0x0, symName: __ZNSt3__110unique_ptrINS_11__list_nodeIiPvEENS_22__allocator_destructorINS_9allocatorIS3_EEEEE7releaseB7v160006Ev, symObjAddr: 0x3024, symBinAddr: 0x1000050F0, symSize: 0x44 }
  - { offsetInCU: 0x8E03, offset: 0x1D31D, size: 0x8, addend: 0x0, symName: __ZNSt3__110unique_ptrINS_11__list_nodeIiPvEENS_22__allocator_destructorINS_9allocatorIS3_EEEEED1B7v160006Ev, symObjAddr: 0x3068, symBinAddr: 0x100005134, symSize: 0x2C }
  - { offsetInCU: 0x8E2C, offset: 0x1D346, size: 0x8, addend: 0x0, symName: __ZNSt3__116allocator_traitsINS_9allocatorINS_11__list_nodeIiPvEEEEE8allocateB7v160006ERS5_m, symObjAddr: 0x3094, symBinAddr: 0x100005160, symSize: 0x2C }
  - { offsetInCU: 0x8E5D, offset: 0x1D377, size: 0x8, addend: 0x0, symName: __ZNSt3__122__allocator_destructorINS_9allocatorINS_11__list_nodeIiPvEEEEEC1B7v160006ERS5_m, symObjAddr: 0x30C0, symBinAddr: 0x10000518C, symSize: 0x3C }
  - { offsetInCU: 0x8EA6, offset: 0x1D3C0, size: 0x8, addend: 0x0, symName: __ZNSt3__110unique_ptrINS_11__list_nodeIiPvEENS_22__allocator_destructorINS_9allocatorIS3_EEEEEC1B7v160006ILb1EvEEPS3_NS_16__dependent_typeINS_27__unique_ptr_deleter_sfinaeIS7_EEXT_EE20__good_rval_ref_typeE, symObjAddr: 0x30FC, symBinAddr: 0x1000051C8, symSize: 0x3C }
  - { offsetInCU: 0x8EF5, offset: 0x1D40F, size: 0x8, addend: 0x0, symName: __ZNSt3__19allocatorINS_11__list_nodeIiPvEEE8allocateB7v160006Em, symObjAddr: 0x3138, symBinAddr: 0x100005204, symSize: 0x8C }
  - { offsetInCU: 0x8F32, offset: 0x1D44C, size: 0x8, addend: 0x0, symName: __ZNSt3__116allocator_traitsINS_9allocatorINS_11__list_nodeIiPvEEEEE8max_sizeB7v160006IS5_vEEmRKS5_, symObjAddr: 0x31C4, symBinAddr: 0x100005290, symSize: 0x24 }
  - { offsetInCU: 0x8F5F, offset: 0x1D479, size: 0x8, addend: 0x0, symName: __ZNKSt3__19allocatorINS_11__list_nodeIiPvEEE8max_sizeB7v160006Ev, symObjAddr: 0x31E8, symBinAddr: 0x1000052B4, symSize: 0x18 }
  - { offsetInCU: 0x8F82, offset: 0x1D49C, size: 0x8, addend: 0x0, symName: __ZNSt3__122__allocator_destructorINS_9allocatorINS_11__list_nodeIiPvEEEEEC2B7v160006ERS5_m, symObjAddr: 0x3200, symBinAddr: 0x1000052CC, symSize: 0x2C }
  - { offsetInCU: 0x8FC6, offset: 0x1D4E0, size: 0x8, addend: 0x0, symName: __ZNSt3__110unique_ptrINS_11__list_nodeIiPvEENS_22__allocator_destructorINS_9allocatorIS3_EEEEEC2B7v160006ILb1EvEEPS3_NS_16__dependent_typeINS_27__unique_ptr_deleter_sfinaeIS7_EEXT_EE20__good_rval_ref_typeE, symObjAddr: 0x322C, symBinAddr: 0x1000052F8, symSize: 0x5C }
  - { offsetInCU: 0x9015, offset: 0x1D52F, size: 0x8, addend: 0x0, symName: __ZNSt3__117__compressed_pairIPNS_11__list_nodeIiPvEENS_22__allocator_destructorINS_9allocatorIS3_EEEEEC1B7v160006IRS4_S8_EEOT_OT0_, symObjAddr: 0x3288, symBinAddr: 0x100005354, symSize: 0x3C }
  - { offsetInCU: 0x906B, offset: 0x1D585, size: 0x8, addend: 0x0, symName: __ZNSt3__117__compressed_pairIPNS_11__list_nodeIiPvEENS_22__allocator_destructorINS_9allocatorIS3_EEEEEC2B7v160006IRS4_S8_EEOT_OT0_, symObjAddr: 0x32C4, symBinAddr: 0x100005390, symSize: 0x48 }
  - { offsetInCU: 0x90C1, offset: 0x1D5DB, size: 0x8, addend: 0x0, symName: __ZNSt3__122__compressed_pair_elemIPNS_11__list_nodeIiPvEELi0ELb0EEC2B7v160006IRS4_vEEOT_, symObjAddr: 0x330C, symBinAddr: 0x1000053D8, symSize: 0x24 }
  - { offsetInCU: 0x9101, offset: 0x1D61B, size: 0x8, addend: 0x0, symName: __ZNSt3__122__compressed_pair_elemINS_22__allocator_destructorINS_9allocatorINS_11__list_nodeIiPvEEEEEELi1ELb0EEC2B7v160006IS7_vEEOT_, symObjAddr: 0x3330, symBinAddr: 0x1000053FC, symSize: 0x24 }
  - { offsetInCU: 0x9142, offset: 0x1D65C, size: 0x8, addend: 0x0, symName: __ZNSt3__19allocatorINS_11__list_nodeIiPvEEE9constructB7v160006IiJRKiEEEvPT_DpOT0_, symObjAddr: 0x3354, symBinAddr: 0x100005420, symSize: 0x28 }
  - { offsetInCU: 0x9195, offset: 0x1D6AF, size: 0x8, addend: 0x0, symName: __ZNKSt3__117__compressed_pairIPNS_11__list_nodeIiPvEENS_22__allocator_destructorINS_9allocatorIS3_EEEEE5firstB7v160006Ev, symObjAddr: 0x337C, symBinAddr: 0x100005448, symSize: 0x24 }
  - { offsetInCU: 0x91BA, offset: 0x1D6D4, size: 0x8, addend: 0x0, symName: __ZNKSt3__122__compressed_pair_elemIPNS_11__list_nodeIiPvEELi0ELb0EE5__getB7v160006Ev, symObjAddr: 0x33A0, symBinAddr: 0x10000546C, symSize: 0x14 }
  - { offsetInCU: 0x91DD, offset: 0x1D6F7, size: 0x8, addend: 0x0, symName: __ZNSt3__117__compressed_pairIPNS_11__list_nodeIiPvEENS_22__allocator_destructorINS_9allocatorIS3_EEEEE5firstB7v160006Ev, symObjAddr: 0x33B4, symBinAddr: 0x100005480, symSize: 0x24 }
  - { offsetInCU: 0x9202, offset: 0x1D71C, size: 0x8, addend: 0x0, symName: __ZNSt3__122__compressed_pair_elemIPNS_11__list_nodeIiPvEELi0ELb0EE5__getB7v160006Ev, symObjAddr: 0x33D8, symBinAddr: 0x1000054A4, symSize: 0x14 }
  - { offsetInCU: 0x9225, offset: 0x1D73F, size: 0x8, addend: 0x0, symName: __ZNSt3__110unique_ptrINS_11__list_nodeIiPvEENS_22__allocator_destructorINS_9allocatorIS3_EEEEED2B7v160006Ev, symObjAddr: 0x33EC, symBinAddr: 0x1000054B8, symSize: 0x30 }
  - { offsetInCU: 0x924D, offset: 0x1D767, size: 0x8, addend: 0x0, symName: __ZNSt3__110unique_ptrINS_11__list_nodeIiPvEENS_22__allocator_destructorINS_9allocatorIS3_EEEEE5resetB7v160006EPS3_, symObjAddr: 0x341C, symBinAddr: 0x1000054E8, symSize: 0x78 }
  - { offsetInCU: 0x928F, offset: 0x1D7A9, size: 0x8, addend: 0x0, symName: __ZNSt3__117__compressed_pairIPNS_11__list_nodeIiPvEENS_22__allocator_destructorINS_9allocatorIS3_EEEEE6secondB7v160006Ev, symObjAddr: 0x3494, symBinAddr: 0x100005560, symSize: 0x28 }
  - { offsetInCU: 0x92B3, offset: 0x1D7CD, size: 0x8, addend: 0x0, symName: __ZNSt3__122__allocator_destructorINS_9allocatorINS_11__list_nodeIiPvEEEEEclB7v160006EPS4_, symObjAddr: 0x34BC, symBinAddr: 0x100005588, symSize: 0x34 }
  - { offsetInCU: 0x92E6, offset: 0x1D800, size: 0x8, addend: 0x0, symName: __ZNSt3__122__compressed_pair_elemINS_22__allocator_destructorINS_9allocatorINS_11__list_nodeIiPvEEEEEELi1ELb0EE5__getB7v160006Ev, symObjAddr: 0x34F0, symBinAddr: 0x1000055BC, symSize: 0x14 }
  - { offsetInCU: 0x9309, offset: 0x1D823, size: 0x8, addend: 0x0, symName: __ZNKSt3__14listIiNS_9allocatorIiEEE13get_allocatorEv, symObjAddr: 0x3504, symBinAddr: 0x1000055D0, symSize: 0x30 }
  - { offsetInCU: 0x9330, offset: 0x1D84A, size: 0x8, addend: 0x0, symName: __ZNSt3__14listIiNS_9allocatorIiEEEC1B7v160006ERKS2_, symObjAddr: 0x3534, symBinAddr: 0x100005600, symSize: 0x34 }
  - { offsetInCU: 0x9367, offset: 0x1D881, size: 0x8, addend: 0x0, symName: __ZNSt3__14listIiNS_9allocatorIiEEE5beginB7v160006Ev, symObjAddr: 0x3568, symBinAddr: 0x100005634, symSize: 0x2C }
  - { offsetInCU: 0x938B, offset: 0x1D8A5, size: 0x8, addend: 0x0, symName: __ZNSt3__121__list_const_iteratorIiPvEC1B7v160006ERKNS_15__list_iteratorIiS1_EE, symObjAddr: 0x3594, symBinAddr: 0x100005660, symSize: 0x34 }
  - { offsetInCU: 0x93C2, offset: 0x1D8DC, size: 0x8, addend: 0x0, symName: __ZNSt3__14listIiNS_9allocatorIiEEE3endB7v160006Ev, symObjAddr: 0x35C8, symBinAddr: 0x100005694, symSize: 0x2C }
  - { offsetInCU: 0x93E6, offset: 0x1D900, size: 0x8, addend: 0x0, symName: __ZNKSt3__121__list_const_iteratorIiPvEdeB7v160006Ev, symObjAddr: 0x3628, symBinAddr: 0x1000056F4, symSize: 0x2C }
  - { offsetInCU: 0x940B, offset: 0x1D925, size: 0x8, addend: 0x0, symName: __ZNSt3__121__list_const_iteratorIiPvEppB7v160006Ev, symObjAddr: 0x36A4, symBinAddr: 0x100005770, symSize: 0x20 }
  - { offsetInCU: 0x942E, offset: 0x1D948, size: 0x8, addend: 0x0, symName: __ZNSt3__14listIiNS_9allocatorIiEEE6spliceENS_21__list_const_iteratorIiPvEERS3_S6_S6_, symObjAddr: 0x36C4, symBinAddr: 0x100005790, symSize: 0x108 }
  - { offsetInCU: 0x94DC, offset: 0x1D9F6, size: 0x8, addend: 0x0, symName: __ZNKSt3__110__list_impIiNS_9allocatorIiEEE12__node_allocB7v160006Ev, symObjAddr: 0x37CC, symBinAddr: 0x100005898, symSize: 0x28 }
  - { offsetInCU: 0x9500, offset: 0x1DA1A, size: 0x8, addend: 0x0, symName: __ZNSt3__19allocatorIiEC1B7v160006INS_11__list_nodeIiPvEEEERKNS0_IT_EE, symObjAddr: 0x37F4, symBinAddr: 0x1000058C0, symSize: 0x34 }
  - { offsetInCU: 0x953C, offset: 0x1DA56, size: 0x8, addend: 0x0, symName: __ZNKSt3__117__compressed_pairImNS_9allocatorINS_11__list_nodeIiPvEEEEE6secondB7v160006Ev, symObjAddr: 0x3828, symBinAddr: 0x1000058F4, symSize: 0x24 }
  - { offsetInCU: 0x9561, offset: 0x1DA7B, size: 0x8, addend: 0x0, symName: __ZNKSt3__122__compressed_pair_elemINS_9allocatorINS_11__list_nodeIiPvEEEELi1ELb1EE5__getB7v160006Ev, symObjAddr: 0x384C, symBinAddr: 0x100005918, symSize: 0x14 }
  - { offsetInCU: 0x9584, offset: 0x1DA9E, size: 0x8, addend: 0x0, symName: __ZNSt3__19allocatorIiEC2B7v160006INS_11__list_nodeIiPvEEEERKNS0_IT_EE, symObjAddr: 0x3860, symBinAddr: 0x10000592C, symSize: 0x30 }
  - { offsetInCU: 0x95C0, offset: 0x1DADA, size: 0x8, addend: 0x0, symName: __ZNSt3__116__non_trivial_ifILb1ENS_9allocatorIiEEEC2B7v160006Ev, symObjAddr: 0x3890, symBinAddr: 0x10000595C, symSize: 0x14 }
  - { offsetInCU: 0x95E8, offset: 0x1DB02, size: 0x8, addend: 0x0, symName: __ZNSt3__14listIiNS_9allocatorIiEEEC2B7v160006ERKS2_, symObjAddr: 0x38A4, symBinAddr: 0x100005970, symSize: 0x3C }
  - { offsetInCU: 0x9620, offset: 0x1DB3A, size: 0x8, addend: 0x0, symName: __ZNSt3__110__list_impIiNS_9allocatorIiEEEC2ERKS2_, symObjAddr: 0x38E0, symBinAddr: 0x1000059AC, symSize: 0x60 }
  - { offsetInCU: 0x965E, offset: 0x1DB78, size: 0x8, addend: 0x0, symName: __ZNSt3__19allocatorINS_11__list_nodeIiPvEEEC1B7v160006IiEERKNS0_IT_EE, symObjAddr: 0x3940, symBinAddr: 0x100005A0C, symSize: 0x34 }
  - { offsetInCU: 0x969F, offset: 0x1DBB9, size: 0x8, addend: 0x0, symName: __ZNSt3__117__compressed_pairImNS_9allocatorINS_11__list_nodeIiPvEEEEEC1B7v160006IiS5_EEOT_OT0_, symObjAddr: 0x3974, symBinAddr: 0x100005A40, symSize: 0x3C }
  - { offsetInCU: 0x96F5, offset: 0x1DC0F, size: 0x8, addend: 0x0, symName: __ZNSt3__19allocatorINS_11__list_nodeIiPvEEEC2B7v160006IiEERKNS0_IT_EE, symObjAddr: 0x39B0, symBinAddr: 0x100005A7C, symSize: 0x30 }
  - { offsetInCU: 0x9731, offset: 0x1DC4B, size: 0x8, addend: 0x0, symName: __ZNSt3__117__compressed_pairImNS_9allocatorINS_11__list_nodeIiPvEEEEEC2B7v160006IiS5_EEOT_OT0_, symObjAddr: 0x39E0, symBinAddr: 0x100005AAC, symSize: 0x44 }
  - { offsetInCU: 0x9787, offset: 0x1DCA1, size: 0x8, addend: 0x0, symName: __ZNSt3__122__compressed_pair_elemINS_9allocatorINS_11__list_nodeIiPvEEEELi1ELb1EEC2B7v160006IS5_vEEOT_, symObjAddr: 0x3A24, symBinAddr: 0x100005AF0, symSize: 0x18 }
  - { offsetInCU: 0x97C7, offset: 0x1DCE1, size: 0x8, addend: 0x0, symName: __ZNSt3__110__list_impIiNS_9allocatorIiEEE5beginB7v160006Ev, symObjAddr: 0x3A3C, symBinAddr: 0x100005B08, symSize: 0x30 }
  - { offsetInCU: 0x97EB, offset: 0x1DD05, size: 0x8, addend: 0x0, symName: __ZNSt3__115__list_iteratorIiPvEC1B7v160006EPNS_16__list_node_baseIiS1_EEPKv, symObjAddr: 0x3A6C, symBinAddr: 0x100005B38, symSize: 0x3C }
  - { offsetInCU: 0x9831, offset: 0x1DD4B, size: 0x8, addend: 0x0, symName: __ZNSt3__115__list_iteratorIiPvEC2B7v160006EPNS_16__list_node_baseIiS1_EEPKv, symObjAddr: 0x3AA8, symBinAddr: 0x100005B74, symSize: 0x24 }
  - { offsetInCU: 0x9877, offset: 0x1DD91, size: 0x8, addend: 0x0, symName: __ZNSt3__121__list_const_iteratorIiPvEC2B7v160006ERKNS_15__list_iteratorIiS1_EE, symObjAddr: 0x3ACC, symBinAddr: 0x100005B98, symSize: 0x24 }
  - { offsetInCU: 0x98AE, offset: 0x1DDC8, size: 0x8, addend: 0x0, symName: __ZNSt3__110__list_impIiNS_9allocatorIiEEE3endB7v160006Ev, symObjAddr: 0x3AF0, symBinAddr: 0x100005BBC, symSize: 0x3C }
  - { offsetInCU: 0x98D3, offset: 0x1DDED, size: 0x8, addend: 0x0, symName: __ZNSt3__121__list_const_iteratorIiPvEmmB7v160006Ev, symObjAddr: 0x3C64, symBinAddr: 0x100005D30, symSize: 0x20 }
  - { offsetInCU: 0x98F7, offset: 0x1DE11, size: 0x8, addend: 0x0, symName: __ZNSt3__14listIiNS_9allocatorIiEEE12__link_nodesEPNS_16__list_node_baseIiPvEES7_S7_, symObjAddr: 0x3CC0, symBinAddr: 0x100005D8C, symSize: 0x50 }
  - { offsetInCU: 0x293A, offset: 0x208A6, size: 0x8, addend: 0x0, symName: __ZN12TcpConnectorC2Ev, symObjAddr: 0x0, symBinAddr: 0x100005E38, symSize: 0x4C }
  - { offsetInCU: 0x2964, offset: 0x208D0, size: 0x8, addend: 0x0, symName: __ZN12TcpConnectorD2Ev, symObjAddr: 0x70, symBinAddr: 0x100005E84, symSize: 0x64 }
  - { offsetInCU: 0x298E, offset: 0x208FA, size: 0x8, addend: 0x0, symName: __ZN12TcpConnectorD1Ev, symObjAddr: 0xD4, symBinAddr: 0x100005EE8, symSize: 0x14 }
  - { offsetInCU: 0x29B8, offset: 0x20924, size: 0x8, addend: 0x0, symName: __ZN12TcpConnectorD0Ev, symObjAddr: 0xE8, symBinAddr: 0x100005EFC, symSize: 0xC }
  - { offsetInCU: 0x29E2, offset: 0x2094E, size: 0x8, addend: 0x0, symName: __ZN12TcpConnector8doListenEv, symObjAddr: 0xF4, symBinAddr: 0x100005F08, symSize: 0x140 }
  - { offsetInCU: 0x2A16, offset: 0x20982, size: 0x8, addend: 0x0, symName: __ZNK12TcpConnector11getListenFdEv, symObjAddr: 0x300, symBinAddr: 0x100006048, symSize: 0x18 }
  - { offsetInCU: 0x6AC6, offset: 0x27479, size: 0x8, addend: 0x0, symName: __ZNSt3__1rsB7v160006IcNS_11char_traitsIcEEEERNS_13basic_istreamIT_T0_EES7_PS4_, symObjAddr: 0xB1C, symBinAddr: 0x100006A20, symSize: 0x74 }
  - { offsetInCU: 0x6B2F, offset: 0x274E2, size: 0x8, addend: 0x0, symName: __ZNSt3__1neB7v160006ERKNS_14__map_iteratorINS_15__tree_iteratorINS_12__value_typeINS_12basic_stringIcNS_11char_traitsIcEENS_9allocatorIcEEEES8_EEPNS_11__tree_nodeIS9_PvEElEEEESH_, symObjAddr: 0xDF4, symBinAddr: 0x100006CF8, symSize: 0x30 }
  - { offsetInCU: 0x6DAA, offset: 0x2775D, size: 0x8, addend: 0x0, symName: __ZNSt3__116__input_c_stringB7v160006IcNS_11char_traitsIcEEEERNS_13basic_istreamIT_T0_EES7_PS4_m, symObjAddr: 0x2D48, symBinAddr: 0x100007AE4, symSize: 0x2C8 }
  - { offsetInCU: 0x6E6E, offset: 0x27821, size: 0x8, addend: 0x0, symName: __ZNSt3__1ltB7v160006IcNS_11char_traitsIcEENS_9allocatorIcEEEEbRKNS_12basic_stringIT_T0_T1_EESB_, symObjAddr: 0x3818, symBinAddr: 0x1000085B4, symSize: 0x38 }
  - { offsetInCU: 0x6EEB, offset: 0x2789E, size: 0x8, addend: 0x0, symName: __ZNSt3__13minB7v160006ImEERKT_S3_S3_, symObjAddr: 0x3B30, symBinAddr: 0x100008878, symSize: 0x2C }
  - { offsetInCU: 0x6F2E, offset: 0x278E1, size: 0x8, addend: 0x0, symName: __ZNSt3__118__constexpr_memcmpB7v160006IcEEiPKT_S3_m, symObjAddr: 0x3BB8, symBinAddr: 0x1000088A4, symSize: 0x34 }
  - { offsetInCU: 0x6F7F, offset: 0x27932, size: 0x8, addend: 0x0, symName: __ZNSt3__13minB7v160006ImNS_6__lessImmEEEERKT_S5_S5_T0_, symObjAddr: 0x3BEC, symBinAddr: 0x1000088D8, symSize: 0x54 }
  - { offsetInCU: 0x7032, offset: 0x279E5, size: 0x8, addend: 0x0, symName: __ZNSt3__127__tree_balance_after_insertB7v160006IPNS_16__tree_node_baseIPvEEEEvT_S5_, symObjAddr: 0x4108, symBinAddr: 0x100008DF4, symSize: 0x340 }
  - { offsetInCU: 0x70A8, offset: 0x27A5B, size: 0x8, addend: 0x0, symName: __ZNSt3__120__tree_is_left_childB7v160006IPNS_16__tree_node_baseIPvEEEEbT_, symObjAddr: 0x4488, symBinAddr: 0x100009174, symSize: 0x2C }
  - { offsetInCU: 0x70DD, offset: 0x27A90, size: 0x8, addend: 0x0, symName: __ZNSt3__118__tree_left_rotateB7v160006IPNS_16__tree_node_baseIPvEEEEvT_, symObjAddr: 0x44B4, symBinAddr: 0x1000091A0, symSize: 0xEC }
  - { offsetInCU: 0x7120, offset: 0x27AD3, size: 0x8, addend: 0x0, symName: __ZNSt3__119__tree_right_rotateB7v160006IPNS_16__tree_node_baseIPvEEEEvT_, symObjAddr: 0x45A0, symBinAddr: 0x10000928C, symSize: 0xCC }
  - { offsetInCU: 0x7163, offset: 0x27B16, size: 0x8, addend: 0x0, symName: __ZNSt3__1neB7v160006ERKNS_15__tree_iteratorINS_12__value_typeINS_12basic_stringIcNS_11char_traitsIcEENS_9allocatorIcEEEES7_EEPNS_11__tree_nodeIS8_PvEElEESF_, symObjAddr: 0x49E8, symBinAddr: 0x1000096C0, symSize: 0x34 }
  - { offsetInCU: 0x71A0, offset: 0x27B53, size: 0x8, addend: 0x0, symName: __ZNSt3__1eqB7v160006ERKNS_15__tree_iteratorINS_12__value_typeINS_12basic_stringIcNS_11char_traitsIcEENS_9allocatorIcEEEES7_EEPNS_11__tree_nodeIS8_PvEElEESF_, symObjAddr: 0x4A1C, symBinAddr: 0x1000096F4, symSize: 0x30 }
  - { offsetInCU: 0x7244, offset: 0x27BF7, size: 0x8, addend: 0x0, symName: __ZNSt3__116__tree_next_iterB7v160006IPNS_15__tree_end_nodeIPNS_16__tree_node_baseIPvEEEES5_EET_T0_, symObjAddr: 0x4B1C, symBinAddr: 0x1000097F4, symSize: 0x80 }
  - { offsetInCU: 0x7282, offset: 0x27C35, size: 0x8, addend: 0x0, symName: __ZNSt3__110__tree_minB7v160006IPNS_16__tree_node_baseIPvEEEET_S5_, symObjAddr: 0x4B9C, symBinAddr: 0x100009874, symSize: 0x40 }
  - { offsetInCU: 0x97D4, offset: 0x2A187, size: 0x8, addend: 0x0, symName: __ZN11RequestHttpC2Ev, symObjAddr: 0x0, symBinAddr: 0x100006060, symSize: 0xE8 }
  - { offsetInCU: 0x97FE, offset: 0x2A1B1, size: 0x8, addend: 0x0, symName: __ZN7RequestC2Ev, symObjAddr: 0xE8, symBinAddr: 0x100006148, symSize: 0x24 }
  - { offsetInCU: 0x9828, offset: 0x2A1DB, size: 0x8, addend: 0x0, symName: __ZNSt3__13mapINS_12basic_stringIcNS_11char_traitsIcEENS_9allocatorIcEEEES6_NS_4lessIS6_EENS4_INS_4pairIKS6_S6_EEEEEC1B7v160006Ev, symObjAddr: 0x10C, symBinAddr: 0x10000616C, symSize: 0x2C }
  - { offsetInCU: 0x9850, offset: 0x2A203, size: 0x8, addend: 0x0, symName: __ZNSt3__13mapINS_12basic_stringIcNS_11char_traitsIcEENS_9allocatorIcEEEES6_NS_4lessIS6_EENS4_INS_4pairIKS6_S6_EEEEED1B7v160006Ev, symObjAddr: 0x170, symBinAddr: 0x100006198, symSize: 0x2C }
  - { offsetInCU: 0x9878, offset: 0x2A22B, size: 0x8, addend: 0x0, symName: __ZN7RequestD2Ev, symObjAddr: 0x19C, symBinAddr: 0x1000061C4, symSize: 0x14 }
  - { offsetInCU: 0x98A0, offset: 0x2A253, size: 0x8, addend: 0x0, symName: __ZN11RequestHttpC1Ev, symObjAddr: 0x1B0, symBinAddr: 0x1000061D8, symSize: 0x2C }
  - { offsetInCU: 0x98CA, offset: 0x2A27D, size: 0x8, addend: 0x0, symName: __ZN11RequestHttpD2Ev, symObjAddr: 0x1DC, symBinAddr: 0x100006204, symSize: 0xDC }
  - { offsetInCU: 0x98F4, offset: 0x2A2A7, size: 0x8, addend: 0x0, symName: __ZN11RequestHttpD1Ev, symObjAddr: 0x2B8, symBinAddr: 0x1000062E0, symSize: 0x2C }
  - { offsetInCU: 0x991E, offset: 0x2A2D1, size: 0x8, addend: 0x0, symName: __ZN11RequestHttpD0Ev, symObjAddr: 0x2E4, symBinAddr: 0x10000630C, symSize: 0x58 }
  - { offsetInCU: 0x9948, offset: 0x2A2FB, size: 0x8, addend: 0x0, symName: __ZN11RequestHttpC2EPNSt3__112basic_stringIcNS0_11char_traitsIcEENS0_9allocatorIcEEEE, symObjAddr: 0x33C, symBinAddr: 0x100006364, symSize: 0x4D4 }
  - { offsetInCU: 0x9ACB, offset: 0x2A47E, size: 0x8, addend: 0x0, symName: __ZNSt3__118basic_stringstreamIcNS_11char_traitsIcEENS_9allocatorIcEEEC1B7v160006Ev, symObjAddr: 0x810, symBinAddr: 0x100006838, symSize: 0x110 }
  - { offsetInCU: 0x9AF3, offset: 0x2A4A6, size: 0x8, addend: 0x0, symName: __ZNSt3__118basic_stringstreamIcNS_11char_traitsIcEENS_9allocatorIcEEE3strB7v160006ERKNS_12basic_stringIcS2_S4_EE, symObjAddr: 0x920, symBinAddr: 0x100006948, symSize: 0x30 }
  - { offsetInCU: 0x9B2B, offset: 0x2A4DE, size: 0x8, addend: 0x0, symName: __ZNKSt3__19basic_iosIcNS_11char_traitsIcEEEcvPvB7v160006Ev, symObjAddr: 0x9A8, symBinAddr: 0x100006978, symSize: 0x4C }
  - { offsetInCU: 0x9B4F, offset: 0x2A502, size: 0x8, addend: 0x0, symName: __ZNKSt3__118basic_stringstreamIcNS_11char_traitsIcEENS_9allocatorIcEEE3strB7v160006Ev, symObjAddr: 0xAC0, symBinAddr: 0x1000069C4, symSize: 0x30 }
  - { offsetInCU: 0x9B73, offset: 0x2A526, size: 0x8, addend: 0x0, symName: __ZNSt3__112basic_stringIcNS_11char_traitsIcEENS_9allocatorIcEEEaSB7v160006EPKc, symObjAddr: 0xAF0, symBinAddr: 0x1000069F4, symSize: 0x2C }
  - { offsetInCU: 0x9BA6, offset: 0x2A559, size: 0x8, addend: 0x0, symName: __ZNSt3__13mapINS_12basic_stringIcNS_11char_traitsIcEENS_9allocatorIcEEEES6_NS_4lessIS6_EENS4_INS_4pairIKS6_S6_EEEEEixERSA_, symObjAddr: 0xB90, symBinAddr: 0x100006A94, symSize: 0xC8 }
  - { offsetInCU: 0x9C23, offset: 0x2A5D6, size: 0x8, addend: 0x0, symName: __ZNSt3__118basic_stringstreamIcNS_11char_traitsIcEENS_9allocatorIcEEED1Ev, symObjAddr: 0xC58, symBinAddr: 0x100006B5C, symSize: 0x70 }
  - { offsetInCU: 0x9C4F, offset: 0x2A602, size: 0x8, addend: 0x0, symName: __ZN11RequestHttpC1EPNSt3__112basic_stringIcNS0_11char_traitsIcEENS0_9allocatorIcEEEE, symObjAddr: 0xCC8, symBinAddr: 0x100006BCC, symSize: 0x34 }
  - { offsetInCU: 0x9C87, offset: 0x2A63A, size: 0x8, addend: 0x0, symName: __ZN11RequestHttp4dumpEv, symObjAddr: 0xCFC, symBinAddr: 0x100006C00, symSize: 0xC0 }
  - { offsetInCU: 0x9CBB, offset: 0x2A66E, size: 0x8, addend: 0x0, symName: __ZNSt3__13mapINS_12basic_stringIcNS_11char_traitsIcEENS_9allocatorIcEEEES6_NS_4lessIS6_EENS4_INS_4pairIKS6_S6_EEEEE5beginB7v160006Ev, symObjAddr: 0xDBC, symBinAddr: 0x100006CC0, symSize: 0x38 }
  - { offsetInCU: 0x9CDF, offset: 0x2A692, size: 0x8, addend: 0x0, symName: __ZNSt3__13mapINS_12basic_stringIcNS_11char_traitsIcEENS_9allocatorIcEEEES6_NS_4lessIS6_EENS4_INS_4pairIKS6_S6_EEEEE3endB7v160006Ev, symObjAddr: 0xE24, symBinAddr: 0x100006D28, symSize: 0x38 }
  - { offsetInCU: 0x9D03, offset: 0x2A6B6, size: 0x8, addend: 0x0, symName: __ZNKSt3__114__map_iteratorINS_15__tree_iteratorINS_12__value_typeINS_12basic_stringIcNS_11char_traitsIcEENS_9allocatorIcEEEES8_EEPNS_11__tree_nodeIS9_PvEElEEEptB7v160006Ev, symObjAddr: 0xEA8, symBinAddr: 0x100006D60, symSize: 0x2C }
  - { offsetInCU: 0x9D27, offset: 0x2A6DA, size: 0x8, addend: 0x0, symName: __ZNSt3__114__map_iteratorINS_15__tree_iteratorINS_12__value_typeINS_12basic_stringIcNS_11char_traitsIcEENS_9allocatorIcEEEES8_EEPNS_11__tree_nodeIS9_PvEElEEEppB7v160006Ei, symObjAddr: 0xED4, symBinAddr: 0x100006D8C, symSize: 0x34 }
  - { offsetInCU: 0x9D66, offset: 0x2A719, size: 0x8, addend: 0x0, symName: __ZN11RequestHttp8getValueENSt3__112basic_stringIcNS0_11char_traitsIcEENS0_9allocatorIcEEEE, symObjAddr: 0xF08, symBinAddr: 0x100006DC0, symSize: 0x44 }
  - { offsetInCU: 0x9D9B, offset: 0x2A74E, size: 0x8, addend: 0x0, symName: __ZN11RequestHttp8addParamENSt3__112basic_stringIcNS0_11char_traitsIcEENS0_9allocatorIcEEEES6_, symObjAddr: 0xF4C, symBinAddr: 0x100006E04, symSize: 0x40 }
  - { offsetInCU: 0x9DDF, offset: 0x2A792, size: 0x8, addend: 0x0, symName: __ZN11RequestHttp6getUriEv, symObjAddr: 0xF8C, symBinAddr: 0x100006E44, symSize: 0x3C }
  - { offsetInCU: 0x9E05, offset: 0x2A7B8, size: 0x8, addend: 0x0, symName: __ZN11RequestHttp9getMethodEv, symObjAddr: 0xFC8, symBinAddr: 0x100006E80, symSize: 0x3C }
  - { offsetInCU: 0x9E2B, offset: 0x2A7DE, size: 0x8, addend: 0x0, symName: __ZN7RequestD1Ev, symObjAddr: 0x1004, symBinAddr: 0x100006EBC, symSize: 0x14 }
  - { offsetInCU: 0x9E53, offset: 0x2A806, size: 0x8, addend: 0x0, symName: __ZN7RequestD0Ev, symObjAddr: 0x1018, symBinAddr: 0x100006ED0, symSize: 0xC }
  - { offsetInCU: 0x9E7B, offset: 0x2A82E, size: 0x8, addend: 0x0, symName: __ZNSt3__118basic_stringstreamIcNS_11char_traitsIcEENS_9allocatorIcEEED2Ev, symObjAddr: 0x1024, symBinAddr: 0x100006EDC, symSize: 0xA4 }
  - { offsetInCU: 0x9EB3, offset: 0x2A866, size: 0x8, addend: 0x0, symName: __ZThn16_NSt3__118basic_stringstreamIcNS_11char_traitsIcEENS_9allocatorIcEEED1Ev, symObjAddr: 0x10C8, symBinAddr: 0x100006F80, symSize: 0x1C }
  - { offsetInCU: 0x9ECA, offset: 0x2A87D, size: 0x8, addend: 0x0, symName: __ZTv0_n24_NSt3__118basic_stringstreamIcNS_11char_traitsIcEENS_9allocatorIcEEED1Ev, symObjAddr: 0x10E4, symBinAddr: 0x100006F9C, symSize: 0x28 }
  - { offsetInCU: 0x9EE6, offset: 0x2A899, size: 0x8, addend: 0x0, symName: __ZNSt3__115basic_stringbufIcNS_11char_traitsIcEENS_9allocatorIcEEED1Ev, symObjAddr: 0x110C, symBinAddr: 0x100006FC4, symSize: 0x2C }
  - { offsetInCU: 0x9F12, offset: 0x2A8C5, size: 0x8, addend: 0x0, symName: __ZNSt3__115basic_stringbufIcNS_11char_traitsIcEENS_9allocatorIcEEED2Ev, symObjAddr: 0x1138, symBinAddr: 0x100006FF0, symSize: 0x78 }
  - { offsetInCU: 0x9F3E, offset: 0x2A8F1, size: 0x8, addend: 0x0, symName: __ZNSt3__13mapINS_12basic_stringIcNS_11char_traitsIcEENS_9allocatorIcEEEES6_NS_4lessIS6_EENS4_INS_4pairIKS6_S6_EEEEEC2B7v160006Ev, symObjAddr: 0x11B0, symBinAddr: 0x100007068, symSize: 0x40 }
  - { offsetInCU: 0x9F66, offset: 0x2A919, size: 0x8, addend: 0x0, symName: __ZNSt3__119__map_value_compareINS_12basic_stringIcNS_11char_traitsIcEENS_9allocatorIcEEEENS_12__value_typeIS6_S6_EENS_4lessIS6_EELb1EEC1B7v160006ESA_, symObjAddr: 0x11F0, symBinAddr: 0x1000070A8, symSize: 0x2C }
  - { offsetInCU: 0x9F9D, offset: 0x2A950, size: 0x8, addend: 0x0, symName: __ZNSt3__16__treeINS_12__value_typeINS_12basic_stringIcNS_11char_traitsIcEENS_9allocatorIcEEEES7_EENS_19__map_value_compareIS7_S8_NS_4lessIS7_EELb1EEENS5_IS8_EEEC1ERKSC_, symObjAddr: 0x121C, symBinAddr: 0x1000070D4, symSize: 0x34 }
  - { offsetInCU: 0x9FD7, offset: 0x2A98A, size: 0x8, addend: 0x0, symName: __ZNSt3__119__map_value_compareINS_12basic_stringIcNS_11char_traitsIcEENS_9allocatorIcEEEENS_12__value_typeIS6_S6_EENS_4lessIS6_EELb1EEC2B7v160006ESA_, symObjAddr: 0x1250, symBinAddr: 0x100007108, symSize: 0x14 }
  - { offsetInCU: 0xA00E, offset: 0x2A9C1, size: 0x8, addend: 0x0, symName: __ZNSt3__16__treeINS_12__value_typeINS_12basic_stringIcNS_11char_traitsIcEENS_9allocatorIcEEEES7_EENS_19__map_value_compareIS7_S8_NS_4lessIS7_EELb1EEENS5_IS8_EEEC2ERKSC_, symObjAddr: 0x1264, symBinAddr: 0x10000711C, symSize: 0x70 }
  - { offsetInCU: 0xA048, offset: 0x2A9FB, size: 0x8, addend: 0x0, symName: __ZNSt3__117__compressed_pairINS_15__tree_end_nodeIPNS_16__tree_node_baseIPvEEEENS_9allocatorINS_11__tree_nodeINS_12__value_typeINS_12basic_stringIcNS_11char_traitsIcEENS7_IcEEEESE_EES3_EEEEEC1B7v160006ILb1EvEEv, symObjAddr: 0x12D4, symBinAddr: 0x10000718C, symSize: 0x2C }
  - { offsetInCU: 0xA080, offset: 0x2AA33, size: 0x8, addend: 0x0, symName: __ZNSt3__117__compressed_pairImNS_19__map_value_compareINS_12basic_stringIcNS_11char_traitsIcEENS_9allocatorIcEEEENS_12__value_typeIS7_S7_EENS_4lessIS7_EELb1EEEEC1B7v160006IiRKSC_EEOT_OT0_, symObjAddr: 0x1300, symBinAddr: 0x1000071B8, symSize: 0x3C }
  - { offsetInCU: 0xA0D6, offset: 0x2AA89, size: 0x8, addend: 0x0, symName: __ZNSt3__16__treeINS_12__value_typeINS_12basic_stringIcNS_11char_traitsIcEENS_9allocatorIcEEEES7_EENS_19__map_value_compareIS7_S8_NS_4lessIS7_EELb1EEENS5_IS8_EEE10__end_nodeB7v160006Ev, symObjAddr: 0x133C, symBinAddr: 0x1000071F4, symSize: 0x2C }
  - { offsetInCU: 0xA0FA, offset: 0x2AAAD, size: 0x8, addend: 0x0, symName: __ZNSt3__16__treeINS_12__value_typeINS_12basic_stringIcNS_11char_traitsIcEENS_9allocatorIcEEEES7_EENS_19__map_value_compareIS7_S8_NS_4lessIS7_EELb1EEENS5_IS8_EEE12__begin_nodeB7v160006Ev, symObjAddr: 0x1368, symBinAddr: 0x100007220, symSize: 0x14 }
  - { offsetInCU: 0xA11E, offset: 0x2AAD1, size: 0x8, addend: 0x0, symName: __ZNSt3__117__compressed_pairINS_15__tree_end_nodeIPNS_16__tree_node_baseIPvEEEENS_9allocatorINS_11__tree_nodeINS_12__value_typeINS_12basic_stringIcNS_11char_traitsIcEENS7_IcEEEESE_EES3_EEEEEC2B7v160006ILb1EvEEv, symObjAddr: 0x137C, symBinAddr: 0x100007234, symSize: 0x34 }
  - { offsetInCU: 0xA151, offset: 0x2AB04, size: 0x8, addend: 0x0, symName: __ZNSt3__122__compressed_pair_elemINS_15__tree_end_nodeIPNS_16__tree_node_baseIPvEEEELi0ELb0EEC2B7v160006ENS_16__value_init_tagE, symObjAddr: 0x13B0, symBinAddr: 0x100007268, symSize: 0x2C }
  - { offsetInCU: 0xA184, offset: 0x2AB37, size: 0x8, addend: 0x0, symName: __ZNSt3__122__compressed_pair_elemINS_9allocatorINS_11__tree_nodeINS_12__value_typeINS_12basic_stringIcNS_11char_traitsIcEENS1_IcEEEES8_EEPvEEEELi1ELb1EEC2B7v160006ENS_16__value_init_tagE, symObjAddr: 0x13DC, symBinAddr: 0x100007294, symSize: 0x2C }
  - { offsetInCU: 0xA1B7, offset: 0x2AB6A, size: 0x8, addend: 0x0, symName: __ZNSt3__115__tree_end_nodeIPNS_16__tree_node_baseIPvEEEC1B7v160006Ev, symObjAddr: 0x1408, symBinAddr: 0x1000072C0, symSize: 0x2C }
  - { offsetInCU: 0xA1DF, offset: 0x2AB92, size: 0x8, addend: 0x0, symName: __ZNSt3__115__tree_end_nodeIPNS_16__tree_node_baseIPvEEEC2B7v160006Ev, symObjAddr: 0x1434, symBinAddr: 0x1000072EC, symSize: 0x18 }
  - { offsetInCU: 0xA207, offset: 0x2ABBA, size: 0x8, addend: 0x0, symName: __ZNSt3__19allocatorINS_11__tree_nodeINS_12__value_typeINS_12basic_stringIcNS_11char_traitsIcEENS0_IcEEEES7_EEPvEEEC2B7v160006Ev, symObjAddr: 0x144C, symBinAddr: 0x100007304, symSize: 0x2C }
  - { offsetInCU: 0xA22F, offset: 0x2ABE2, size: 0x8, addend: 0x0, symName: __ZNSt3__116__non_trivial_ifILb1ENS_9allocatorINS_11__tree_nodeINS_12__value_typeINS_12basic_stringIcNS_11char_traitsIcEENS1_IcEEEES8_EEPvEEEEEC2B7v160006Ev, symObjAddr: 0x1478, symBinAddr: 0x100007330, symSize: 0x14 }
  - { offsetInCU: 0xA257, offset: 0x2AC0A, size: 0x8, addend: 0x0, symName: __ZNSt3__117__compressed_pairImNS_19__map_value_compareINS_12basic_stringIcNS_11char_traitsIcEENS_9allocatorIcEEEENS_12__value_typeIS7_S7_EENS_4lessIS7_EELb1EEEEC2B7v160006IiRKSC_EEOT_OT0_, symObjAddr: 0x148C, symBinAddr: 0x100007344, symSize: 0x44 }
  - { offsetInCU: 0xA2AD, offset: 0x2AC60, size: 0x8, addend: 0x0, symName: __ZNSt3__122__compressed_pair_elemINS_19__map_value_compareINS_12basic_stringIcNS_11char_traitsIcEENS_9allocatorIcEEEENS_12__value_typeIS7_S7_EENS_4lessIS7_EELb1EEELi1ELb1EEC2B7v160006IRKSC_vEEOT_, symObjAddr: 0x14F4, symBinAddr: 0x100007388, symSize: 0x18 }
  - { offsetInCU: 0xA2ED, offset: 0x2ACA0, size: 0x8, addend: 0x0, symName: __ZNSt3__114pointer_traitsIPNS_15__tree_end_nodeIPNS_16__tree_node_baseIPvEEEEE10pointer_toB7v160006ERS6_, symObjAddr: 0x150C, symBinAddr: 0x1000073A0, symSize: 0x14 }
  - { offsetInCU: 0xA30F, offset: 0x2ACC2, size: 0x8, addend: 0x0, symName: __ZNSt3__117__compressed_pairINS_15__tree_end_nodeIPNS_16__tree_node_baseIPvEEEENS_9allocatorINS_11__tree_nodeINS_12__value_typeINS_12basic_stringIcNS_11char_traitsIcEENS7_IcEEEESE_EES3_EEEEE5firstB7v160006Ev, symObjAddr: 0x1520, symBinAddr: 0x1000073B4, symSize: 0x24 }
  - { offsetInCU: 0xA333, offset: 0x2ACE6, size: 0x8, addend: 0x0, symName: __ZNSt3__122__compressed_pair_elemINS_15__tree_end_nodeIPNS_16__tree_node_baseIPvEEEELi0ELb0EE5__getB7v160006Ev, symObjAddr: 0x1544, symBinAddr: 0x1000073D8, symSize: 0x14 }
  - { offsetInCU: 0xA357, offset: 0x2AD0A, size: 0x8, addend: 0x0, symName: __ZNSt3__13mapINS_12basic_stringIcNS_11char_traitsIcEENS_9allocatorIcEEEES6_NS_4lessIS6_EENS4_INS_4pairIKS6_S6_EEEEED2B7v160006Ev, symObjAddr: 0x1B08, symBinAddr: 0x1000073EC, symSize: 0x2C }
  - { offsetInCU: 0xA37F, offset: 0x2AD32, size: 0x8, addend: 0x0, symName: __ZNSt3__16__treeINS_12__value_typeINS_12basic_stringIcNS_11char_traitsIcEENS_9allocatorIcEEEES7_EENS_19__map_value_compareIS7_S8_NS_4lessIS7_EELb1EEENS5_IS8_EEED1Ev, symObjAddr: 0x1B34, symBinAddr: 0x100007418, symSize: 0x2C }
  - { offsetInCU: 0xA3AA, offset: 0x2AD5D, size: 0x8, addend: 0x0, symName: __ZNSt3__16__treeINS_12__value_typeINS_12basic_stringIcNS_11char_traitsIcEENS_9allocatorIcEEEES7_EENS_19__map_value_compareIS7_S8_NS_4lessIS7_EELb1EEENS5_IS8_EEED2Ev, symObjAddr: 0x1B60, symBinAddr: 0x100007444, symSize: 0x38 }
  - { offsetInCU: 0xA3D5, offset: 0x2AD88, size: 0x8, addend: 0x0, symName: __ZNSt3__16__treeINS_12__value_typeINS_12basic_stringIcNS_11char_traitsIcEENS_9allocatorIcEEEES7_EENS_19__map_value_compareIS7_S8_NS_4lessIS7_EELb1EEENS5_IS8_EEE7destroyEPNS_11__tree_nodeIS8_PvEE, symObjAddr: 0x1B98, symBinAddr: 0x10000747C, symSize: 0xC0 }
  - { offsetInCU: 0xA429, offset: 0x2ADDC, size: 0x8, addend: 0x0, symName: __ZNKSt3__16__treeINS_12__value_typeINS_12basic_stringIcNS_11char_traitsIcEENS_9allocatorIcEEEES7_EENS_19__map_value_compareIS7_S8_NS_4lessIS7_EELb1EEENS5_IS8_EEE6__rootB7v160006Ev, symObjAddr: 0x1C58, symBinAddr: 0x10000753C, symSize: 0x28 }
  - { offsetInCU: 0xA44D, offset: 0x2AE00, size: 0x8, addend: 0x0, symName: __ZNSt3__16__treeINS_12__value_typeINS_12basic_stringIcNS_11char_traitsIcEENS_9allocatorIcEEEES7_EENS_19__map_value_compareIS7_S8_NS_4lessIS7_EELb1EEENS5_IS8_EEE12__node_allocB7v160006Ev, symObjAddr: 0x1C80, symBinAddr: 0x100007564, symSize: 0x28 }
  - { offsetInCU: 0xA471, offset: 0x2AE24, size: 0x8, addend: 0x0, symName: __ZNSt3__116allocator_traitsINS_9allocatorINS_11__tree_nodeINS_12__value_typeINS_12basic_stringIcNS_11char_traitsIcEENS1_IcEEEES8_EEPvEEEEE7destroyB7v160006INS_4pairIKS8_S8_EEvvEEvRSC_PT_, symObjAddr: 0x1CA8, symBinAddr: 0x10000758C, symSize: 0x28 }
  - { offsetInCU: 0xA4AB, offset: 0x2AE5E, size: 0x8, addend: 0x0, symName: __ZNSt3__122__tree_key_value_typesINS_12__value_typeINS_12basic_stringIcNS_11char_traitsIcEENS_9allocatorIcEEEES7_EEE9__get_ptrB7v160006ERS8_, symObjAddr: 0x1CD0, symBinAddr: 0x1000075B4, symSize: 0x24 }
  - { offsetInCU: 0xA4CE, offset: 0x2AE81, size: 0x8, addend: 0x0, symName: __ZNSt3__116allocator_traitsINS_9allocatorINS_11__tree_nodeINS_12__value_typeINS_12basic_stringIcNS_11char_traitsIcEENS1_IcEEEES8_EEPvEEEEE10deallocateB7v160006ERSC_PSB_m, symObjAddr: 0x1CF4, symBinAddr: 0x1000075D8, symSize: 0x34 }
  - { offsetInCU: 0xA50F, offset: 0x2AEC2, size: 0x8, addend: 0x0, symName: __ZNSt3__117__compressed_pairINS_15__tree_end_nodeIPNS_16__tree_node_baseIPvEEEENS_9allocatorINS_11__tree_nodeINS_12__value_typeINS_12basic_stringIcNS_11char_traitsIcEENS7_IcEEEESE_EES3_EEEEE6secondB7v160006Ev, symObjAddr: 0x1D28, symBinAddr: 0x10000760C, symSize: 0x24 }
  - { offsetInCU: 0xA533, offset: 0x2AEE6, size: 0x8, addend: 0x0, symName: __ZNSt3__122__compressed_pair_elemINS_9allocatorINS_11__tree_nodeINS_12__value_typeINS_12basic_stringIcNS_11char_traitsIcEENS1_IcEEEES8_EEPvEEEELi1ELb1EE5__getB7v160006Ev, symObjAddr: 0x1D4C, symBinAddr: 0x100007630, symSize: 0x14 }
  - { offsetInCU: 0xA557, offset: 0x2AF0A, size: 0x8, addend: 0x0, symName: __ZNSt3__14pairIKNS_12basic_stringIcNS_11char_traitsIcEENS_9allocatorIcEEEES6_ED1Ev, symObjAddr: 0x1D60, symBinAddr: 0x100007644, symSize: 0x2C }
  - { offsetInCU: 0xA581, offset: 0x2AF34, size: 0x8, addend: 0x0, symName: __ZNSt3__14pairIKNS_12basic_stringIcNS_11char_traitsIcEENS_9allocatorIcEEEES6_ED2Ev, symObjAddr: 0x1D8C, symBinAddr: 0x100007670, symSize: 0x68 }
  - { offsetInCU: 0xA5AB, offset: 0x2AF5E, size: 0x8, addend: 0x0, symName: __ZNSt3__112__value_typeINS_12basic_stringIcNS_11char_traitsIcEENS_9allocatorIcEEEES6_E11__get_valueB7v160006Ev, symObjAddr: 0x1DF4, symBinAddr: 0x1000076D8, symSize: 0x14 }
  - { offsetInCU: 0xA5CF, offset: 0x2AF82, size: 0x8, addend: 0x0, symName: __ZNSt3__19allocatorINS_11__tree_nodeINS_12__value_typeINS_12basic_stringIcNS_11char_traitsIcEENS0_IcEEEES7_EEPvEEE10deallocateB7v160006EPSA_m, symObjAddr: 0x1E08, symBinAddr: 0x1000076EC, symSize: 0x74 }
  - { offsetInCU: 0xA60F, offset: 0x2AFC2, size: 0x8, addend: 0x0, symName: __ZNKSt3__16__treeINS_12__value_typeINS_12basic_stringIcNS_11char_traitsIcEENS_9allocatorIcEEEES7_EENS_19__map_value_compareIS7_S8_NS_4lessIS7_EELb1EEENS5_IS8_EEE10__end_nodeB7v160006Ev, symObjAddr: 0x1EF8, symBinAddr: 0x100007760, symSize: 0x2C }
  - { offsetInCU: 0xA633, offset: 0x2AFE6, size: 0x8, addend: 0x0, symName: __ZNKSt3__117__compressed_pairINS_15__tree_end_nodeIPNS_16__tree_node_baseIPvEEEENS_9allocatorINS_11__tree_nodeINS_12__value_typeINS_12basic_stringIcNS_11char_traitsIcEENS7_IcEEEESE_EES3_EEEEE5firstB7v160006Ev, symObjAddr: 0x1F24, symBinAddr: 0x10000778C, symSize: 0x24 }
  - { offsetInCU: 0xA657, offset: 0x2B00A, size: 0x8, addend: 0x0, symName: __ZNKSt3__122__compressed_pair_elemINS_15__tree_end_nodeIPNS_16__tree_node_baseIPvEEEELi0ELb0EE5__getB7v160006Ev, symObjAddr: 0x1F48, symBinAddr: 0x1000077B0, symSize: 0x14 }
  - { offsetInCU: 0xA67B, offset: 0x2B02E, size: 0x8, addend: 0x0, symName: __ZNSt3__19basic_iosIcNS_11char_traitsIcEEEC2B7v160006Ev, symObjAddr: 0x1F5C, symBinAddr: 0x1000077C4, symSize: 0x44 }
  - { offsetInCU: 0xA6A3, offset: 0x2B056, size: 0x8, addend: 0x0, symName: __ZNSt3__114basic_iostreamIcNS_11char_traitsIcEEEC2B7v160006EPNS_15basic_streambufIcS2_EE, symObjAddr: 0x1FA0, symBinAddr: 0x100007808, symSize: 0xB4 }
  - { offsetInCU: 0xA6E6, offset: 0x2B099, size: 0x8, addend: 0x0, symName: __ZNSt3__115basic_stringbufIcNS_11char_traitsIcEENS_9allocatorIcEEEC1B7v160006Ej, symObjAddr: 0x2054, symBinAddr: 0x1000078BC, symSize: 0x34 }
  - { offsetInCU: 0xA71C, offset: 0x2B0CF, size: 0x8, addend: 0x0, symName: __ZNSt3__18ios_baseC2B7v160006Ev, symObjAddr: 0x2088, symBinAddr: 0x1000078F0, symSize: 0x24 }
  - { offsetInCU: 0xA744, offset: 0x2B0F7, size: 0x8, addend: 0x0, symName: __ZNSt3__113basic_istreamIcNS_11char_traitsIcEEEC2B7v160006EPNS_15basic_streambufIcS2_EE, symObjAddr: 0x20AC, symBinAddr: 0x100007914, symSize: 0x64 }
  - { offsetInCU: 0xA786, offset: 0x2B139, size: 0x8, addend: 0x0, symName: __ZNSt3__113basic_ostreamIcNS_11char_traitsIcEEEC2B7v160006Ev, symObjAddr: 0x2110, symBinAddr: 0x100007978, symSize: 0x34 }
  - { offsetInCU: 0xA7BA, offset: 0x2B16D, size: 0x8, addend: 0x0, symName: __ZNSt3__19basic_iosIcNS_11char_traitsIcEEE4initB7v160006EPNS_15basic_streambufIcS2_EE, symObjAddr: 0x2144, symBinAddr: 0x1000079AC, symSize: 0x44 }
  - { offsetInCU: 0xA7F0, offset: 0x2B1A3, size: 0x8, addend: 0x0, symName: __ZNSt3__115basic_stringbufIcNS_11char_traitsIcEENS_9allocatorIcEEEC2B7v160006Ej, symObjAddr: 0x2190, symBinAddr: 0x1000079F0, symSize: 0x90 }
  - { offsetInCU: 0xA826, offset: 0x2B1D9, size: 0x8, addend: 0x0, symName: __ZNKSt3__19basic_iosIcNS_11char_traitsIcEEE4failB7v160006Ev, symObjAddr: 0x248C, symBinAddr: 0x100007A80, symSize: 0x28 }
  - { offsetInCU: 0xA84A, offset: 0x2B1FD, size: 0x8, addend: 0x0, symName: __ZNKSt3__18ios_base4failB7v160006Ev, symObjAddr: 0x24B4, symBinAddr: 0x100007AA8, symSize: 0x28 }
  - { offsetInCU: 0xA894, offset: 0x2B247, size: 0x8, addend: 0x0, symName: __ZNSt3__114numeric_limitsIlE3maxB7v160006Ev, symObjAddr: 0x2D34, symBinAddr: 0x100007AD0, symSize: 0x14 }
  - { offsetInCU: 0xA8A8, offset: 0x2B25B, size: 0x8, addend: 0x0, symName: __ZNSt3__123__libcpp_numeric_limitsIlLb1EE3maxB7v160006Ev, symObjAddr: 0x3010, symBinAddr: 0x100007DAC, symSize: 0x8 }
  - { offsetInCU: 0xA8DA, offset: 0x2B28D, size: 0x8, addend: 0x0, symName: __ZNKSt3__113basic_istreamIcNS_11char_traitsIcEEE6sentrycvbB7v160006Ev, symObjAddr: 0x3018, symBinAddr: 0x100007DB4, symSize: 0x1C }
  - { offsetInCU: 0xA8FE, offset: 0x2B2B1, size: 0x8, addend: 0x0, symName: __ZNSt3__115basic_streambufIcNS_11char_traitsIcEEE5sgetcB7v160006Ev, symObjAddr: 0x3034, symBinAddr: 0x100007DD0, symSize: 0x70 }
  - { offsetInCU: 0xA922, offset: 0x2B2D5, size: 0x8, addend: 0x0, symName: __ZNSt3__111char_traitsIcE12to_char_typeEi, symObjAddr: 0x30A4, symBinAddr: 0x100007E40, symSize: 0x18 }
  - { offsetInCU: 0xA944, offset: 0x2B2F7, size: 0x8, addend: 0x0, symName: __ZNKSt3__15ctypeIcE2isB7v160006Ejc, symObjAddr: 0x30BC, symBinAddr: 0x100007E58, symSize: 0x7C }
  - { offsetInCU: 0xA986, offset: 0x2B339, size: 0x8, addend: 0x0, symName: __ZNSt3__115basic_streambufIcNS_11char_traitsIcEEE6sbumpcB7v160006Ev, symObjAddr: 0x3138, symBinAddr: 0x100007ED4, symSize: 0x78 }
  - { offsetInCU: 0xA9AA, offset: 0x2B35D, size: 0x8, addend: 0x0, symName: __ZNSt3__18ios_base18__setstate_nothrowB7v160006Ej, symObjAddr: 0x31B0, symBinAddr: 0x100007F4C, symSize: 0x64 }
  - { offsetInCU: 0xA9DD, offset: 0x2B390, size: 0x8, addend: 0x0, symName: __ZNKSt3__19basic_iosIcNS_11char_traitsIcEEE10exceptionsB7v160006Ev, symObjAddr: 0x3214, symBinAddr: 0x100007FB0, symSize: 0x24 }
  - { offsetInCU: 0xAA01, offset: 0x2B3B4, size: 0x8, addend: 0x0, symName: __ZNSt3__111char_traitsIcE11to_int_typeEc, symObjAddr: 0x3238, symBinAddr: 0x100007FD4, symSize: 0x14 }
  - { offsetInCU: 0xAA22, offset: 0x2B3D5, size: 0x8, addend: 0x0, symName: __Z7isasciii, symObjAddr: 0x324C, symBinAddr: 0x100007FE8, symSize: 0x24 }
  - { offsetInCU: 0xAA4F, offset: 0x2B402, size: 0x8, addend: 0x0, symName: __ZNKSt3__18ios_base10exceptionsB7v160006Ev, symObjAddr: 0x3270, symBinAddr: 0x10000800C, symSize: 0x18 }
  - { offsetInCU: 0xAA76, offset: 0x2B429, size: 0x8, addend: 0x0, symName: __ZNSt3__16__treeINS_12__value_typeINS_12basic_stringIcNS_11char_traitsIcEENS_9allocatorIcEEEES7_EENS_19__map_value_compareIS7_S8_NS_4lessIS7_EELb1EEENS5_IS8_EEE12__find_equalIS7_EERPNS_16__tree_node_baseIPvEERPNS_15__tree_end_nodeISJ_EERKT_, symObjAddr: 0x3288, symBinAddr: 0x100008024, symSize: 0x184 }
  - { offsetInCU: 0xAAE2, offset: 0x2B495, size: 0x8, addend: 0x0, symName: __ZNSt3__13mapINS_12basic_stringIcNS_11char_traitsIcEENS_9allocatorIcEEEES6_NS_4lessIS6_EENS4_INS_4pairIKS6_S6_EEEEE25__construct_node_with_keyERSA_, symObjAddr: 0x340C, symBinAddr: 0x1000081A8, symSize: 0x144 }
  - { offsetInCU: 0xAB37, offset: 0x2B4EA, size: 0x8, addend: 0x0, symName: __ZNSt3__16__treeINS_12__value_typeINS_12basic_stringIcNS_11char_traitsIcEENS_9allocatorIcEEEES7_EENS_19__map_value_compareIS7_S8_NS_4lessIS7_EELb1EEENS5_IS8_EEE16__insert_node_atEPNS_15__tree_end_nodeIPNS_16__tree_node_baseIPvEEEERSJ_SJ_, symObjAddr: 0x3550, symBinAddr: 0x1000082EC, symSize: 0xCC }
  - { offsetInCU: 0xAB8B, offset: 0x2B53E, size: 0x8, addend: 0x0, symName: __ZNKSt3__110unique_ptrINS_11__tree_nodeINS_12__value_typeINS_12basic_stringIcNS_11char_traitsIcEENS_9allocatorIcEEEES8_EEPvEENS_21__map_node_destructorINS6_ISB_EEEEE3getB7v160006Ev, symObjAddr: 0x361C, symBinAddr: 0x1000083B8, symSize: 0x28 }
  - { offsetInCU: 0xABAF, offset: 0x2B562, size: 0x8, addend: 0x0, symName: __ZNSt3__110unique_ptrINS_11__tree_nodeINS_12__value_typeINS_12basic_stringIcNS_11char_traitsIcEENS_9allocatorIcEEEES8_EEPvEENS_21__map_node_destructorINS6_ISB_EEEEE7releaseB7v160006Ev, symObjAddr: 0x3644, symBinAddr: 0x1000083E0, symSize: 0x44 }
  - { offsetInCU: 0xABE2, offset: 0x2B595, size: 0x8, addend: 0x0, symName: __ZNSt3__110unique_ptrINS_11__tree_nodeINS_12__value_typeINS_12basic_stringIcNS_11char_traitsIcEENS_9allocatorIcEEEES8_EEPvEENS_21__map_node_destructorINS6_ISB_EEEEED1B7v160006Ev, symObjAddr: 0x3688, symBinAddr: 0x100008424, symSize: 0x2C }
  - { offsetInCU: 0xAC0A, offset: 0x2B5BD, size: 0x8, addend: 0x0, symName: __ZNKSt3__16__treeINS_12__value_typeINS_12basic_stringIcNS_11char_traitsIcEENS_9allocatorIcEEEES7_EENS_19__map_value_compareIS7_S8_NS_4lessIS7_EELb1EEENS5_IS8_EEE10__root_ptrEv, symObjAddr: 0x36B4, symBinAddr: 0x100008450, symSize: 0x24 }
  - { offsetInCU: 0xAC2E, offset: 0x2B5E1, size: 0x8, addend: 0x0, symName: __ZNSt3__16__treeINS_12__value_typeINS_12basic_stringIcNS_11char_traitsIcEENS_9allocatorIcEEEES7_EENS_19__map_value_compareIS7_S8_NS_4lessIS7_EELb1EEENS5_IS8_EEE10value_compB7v160006Ev, symObjAddr: 0x36D8, symBinAddr: 0x100008474, symSize: 0x28 }
  - { offsetInCU: 0xAC52, offset: 0x2B605, size: 0x8, addend: 0x0, symName: __ZNKSt3__119__map_value_compareINS_12basic_stringIcNS_11char_traitsIcEENS_9allocatorIcEEEENS_12__value_typeIS6_S6_EENS_4lessIS6_EELb1EEclB7v160006ERKS6_RKS8_, symObjAddr: 0x3700, symBinAddr: 0x10000849C, symSize: 0x50 }
  - { offsetInCU: 0xAC94, offset: 0x2B647, size: 0x8, addend: 0x0, symName: __ZNKSt3__119__map_value_compareINS_12basic_stringIcNS_11char_traitsIcEENS_9allocatorIcEEEENS_12__value_typeIS6_S6_EENS_4lessIS6_EELb1EEclB7v160006ERKS8_RKS6_, symObjAddr: 0x3750, symBinAddr: 0x1000084EC, symSize: 0x48 }
  - { offsetInCU: 0xACD6, offset: 0x2B689, size: 0x8, addend: 0x0, symName: __ZNSt3__117__compressed_pairImNS_19__map_value_compareINS_12basic_stringIcNS_11char_traitsIcEENS_9allocatorIcEEEENS_12__value_typeIS7_S7_EENS_4lessIS7_EELb1EEEE6secondB7v160006Ev, symObjAddr: 0x3798, symBinAddr: 0x100008534, symSize: 0x24 }
  - { offsetInCU: 0xACFA, offset: 0x2B6AD, size: 0x8, addend: 0x0, symName: __ZNSt3__122__compressed_pair_elemINS_19__map_value_compareINS_12basic_stringIcNS_11char_traitsIcEENS_9allocatorIcEEEENS_12__value_typeIS7_S7_EENS_4lessIS7_EELb1EEELi1ELb1EE5__getB7v160006Ev, symObjAddr: 0x37BC, symBinAddr: 0x100008558, symSize: 0x14 }
  - { offsetInCU: 0xAD1E, offset: 0x2B6D1, size: 0x8, addend: 0x0, symName: __ZNKSt3__14lessINS_12basic_stringIcNS_11char_traitsIcEENS_9allocatorIcEEEEEclB7v160006ERKS6_S9_, symObjAddr: 0x37D0, symBinAddr: 0x10000856C, symSize: 0x34 }
  - { offsetInCU: 0xAD60, offset: 0x2B713, size: 0x8, addend: 0x0, symName: __ZNKSt3__112__value_typeINS_12basic_stringIcNS_11char_traitsIcEENS_9allocatorIcEEEES6_E11__get_valueB7v160006Ev, symObjAddr: 0x3804, symBinAddr: 0x1000085A0, symSize: 0x14 }
  - { offsetInCU: 0xAD84, offset: 0x2B737, size: 0x8, addend: 0x0, symName: __ZNKSt3__112basic_stringIcNS_11char_traitsIcEENS_9allocatorIcEEE7compareB7v160006ERKS5_, symObjAddr: 0x3850, symBinAddr: 0x1000085EC, symSize: 0x4C }
  - { offsetInCU: 0xADBA, offset: 0x2B76D, size: 0x8, addend: 0x0, symName: __ZNKSt3__112basic_stringIcNS_11char_traitsIcEENS_9allocatorIcEEE7compareINS_17basic_string_viewIcS2_EEEENS_9enable_ifIXsr33__can_be_converted_to_string_viewIcS2_T_EE5valueEiE4typeERKSA_, symObjAddr: 0x389C, symBinAddr: 0x100008638, symSize: 0x140 }
  - { offsetInCU: 0xAE36, offset: 0x2B7E9, size: 0x8, addend: 0x0, symName: __ZNKSt3__112basic_stringIcNS_11char_traitsIcEENS_9allocatorIcEEEcvNS_17basic_string_viewIcS2_EEB7v160006Ev, symObjAddr: 0x39DC, symBinAddr: 0x100008778, symSize: 0x50 }
  - { offsetInCU: 0xAE5A, offset: 0x2B80D, size: 0x8, addend: 0x0, symName: __ZNKSt3__117basic_string_viewIcNS_11char_traitsIcEEE4sizeB7v160006Ev, symObjAddr: 0x3A80, symBinAddr: 0x1000087C8, symSize: 0x18 }
  - { offsetInCU: 0xAE7E, offset: 0x2B831, size: 0x8, addend: 0x0, symName: __ZNSt3__111char_traitsIcE7compareEPKcS3_m, symObjAddr: 0x3A98, symBinAddr: 0x1000087E0, symSize: 0x80 }
  - { offsetInCU: 0xAEBC, offset: 0x2B86F, size: 0x8, addend: 0x0, symName: __ZNKSt3__117basic_string_viewIcNS_11char_traitsIcEEE4dataB7v160006Ev, symObjAddr: 0x3B18, symBinAddr: 0x100008860, symSize: 0x18 }
  - { offsetInCU: 0xAEEA, offset: 0x2B89D, size: 0x8, addend: 0x0, symName: __ZNKSt3__16__lessImmEclB7v160006ERKmS3_, symObjAddr: 0x3C40, symBinAddr: 0x10000892C, symSize: 0x34 }
  - { offsetInCU: 0xAF2A, offset: 0x2B8DD, size: 0x8, addend: 0x0, symName: __ZNSt3__117basic_string_viewIcNS_11char_traitsIcEEEC1B7v160006EPKcm, symObjAddr: 0x3C74, symBinAddr: 0x100008960, symSize: 0x3C }
  - { offsetInCU: 0xAF70, offset: 0x2B923, size: 0x8, addend: 0x0, symName: __ZNSt3__117basic_string_viewIcNS_11char_traitsIcEEEC2B7v160006EPKcm, symObjAddr: 0x3CB0, symBinAddr: 0x10000899C, symSize: 0x2C }
  - { offsetInCU: 0xAFB6, offset: 0x2B969, size: 0x8, addend: 0x0, symName: __ZNSt3__116allocator_traitsINS_9allocatorINS_11__tree_nodeINS_12__value_typeINS_12basic_stringIcNS_11char_traitsIcEENS1_IcEEEES8_EEPvEEEEE8allocateB7v160006ERSC_m, symObjAddr: 0x3CDC, symBinAddr: 0x1000089C8, symSize: 0x2C }
  - { offsetInCU: 0xAFE8, offset: 0x2B99B, size: 0x8, addend: 0x0, symName: __ZNSt3__121__map_node_destructorINS_9allocatorINS_11__tree_nodeINS_12__value_typeINS_12basic_stringIcNS_11char_traitsIcEENS1_IcEEEES8_EEPvEEEEEC1B7v160006ERSC_, symObjAddr: 0x3D08, symBinAddr: 0x1000089F4, symSize: 0x34 }
  - { offsetInCU: 0xB024, offset: 0x2B9D7, size: 0x8, addend: 0x0, symName: __ZNSt3__110unique_ptrINS_11__tree_nodeINS_12__value_typeINS_12basic_stringIcNS_11char_traitsIcEENS_9allocatorIcEEEES8_EEPvEENS_21__map_node_destructorINS6_ISB_EEEEEC1B7v160006ILb1EvEEPSB_NS_16__dependent_typeINS_27__unique_ptr_deleter_sfinaeISE_EEXT_EE20__good_rval_ref_typeE, symObjAddr: 0x3D3C, symBinAddr: 0x100008A28, symSize: 0x3C }
  - { offsetInCU: 0xB078, offset: 0x2BA2B, size: 0x8, addend: 0x0, symName: __ZNSt3__116allocator_traitsINS_9allocatorINS_11__tree_nodeINS_12__value_typeINS_12basic_stringIcNS_11char_traitsIcEENS1_IcEEEES8_EEPvEEEEE9constructB7v160006IKS8_JRSF_EvEEvRSC_PT_DpOT0_, symObjAddr: 0x3D78, symBinAddr: 0x100008A64, symSize: 0x34 }
  - { offsetInCU: 0xB0CE, offset: 0x2BA81, size: 0x8, addend: 0x0, symName: __ZNKSt3__110unique_ptrINS_11__tree_nodeINS_12__value_typeINS_12basic_stringIcNS_11char_traitsIcEENS_9allocatorIcEEEES8_EEPvEENS_21__map_node_destructorINS6_ISB_EEEEEptB7v160006Ev, symObjAddr: 0x3DAC, symBinAddr: 0x100008A98, symSize: 0x28 }
  - { offsetInCU: 0xB0F2, offset: 0x2BAA5, size: 0x8, addend: 0x0, symName: __ZNSt3__110unique_ptrINS_11__tree_nodeINS_12__value_typeINS_12basic_stringIcNS_11char_traitsIcEENS_9allocatorIcEEEES8_EEPvEENS_21__map_node_destructorINS6_ISB_EEEEE11get_deleterB7v160006Ev, symObjAddr: 0x3DD4, symBinAddr: 0x100008AC0, symSize: 0x24 }
  - { offsetInCU: 0xB11B, offset: 0x2BACE, size: 0x8, addend: 0x0, symName: __ZNSt3__116allocator_traitsINS_9allocatorINS_11__tree_nodeINS_12__value_typeINS_12basic_stringIcNS_11char_traitsIcEENS1_IcEEEES8_EEPvEEEEE9constructB7v160006IS8_JEvEEvRSC_PT_DpOT0_, symObjAddr: 0x3DF8, symBinAddr: 0x100008AE4, symSize: 0x2C }
  - { offsetInCU: 0xB15D, offset: 0x2BB10, size: 0x8, addend: 0x0, symName: __ZNSt3__19allocatorINS_11__tree_nodeINS_12__value_typeINS_12basic_stringIcNS_11char_traitsIcEENS0_IcEEEES7_EEPvEEE8allocateB7v160006Em, symObjAddr: 0x3E24, symBinAddr: 0x100008B10, symSize: 0x8C }
  - { offsetInCU: 0xB199, offset: 0x2BB4C, size: 0x8, addend: 0x0, symName: __ZNSt3__116allocator_traitsINS_9allocatorINS_11__tree_nodeINS_12__value_typeINS_12basic_stringIcNS_11char_traitsIcEENS1_IcEEEES8_EEPvEEEEE8max_sizeB7v160006ISC_vEEmRKSC_, symObjAddr: 0x3EB0, symBinAddr: 0x100008B9C, symSize: 0x24 }
  - { offsetInCU: 0xB1C6, offset: 0x2BB79, size: 0x8, addend: 0x0, symName: __ZNKSt3__19allocatorINS_11__tree_nodeINS_12__value_typeINS_12basic_stringIcNS_11char_traitsIcEENS0_IcEEEES7_EEPvEEE8max_sizeB7v160006Ev, symObjAddr: 0x3ED4, symBinAddr: 0x100008BC0, symSize: 0x18 }
  - { offsetInCU: 0xB1EA, offset: 0x2BB9D, size: 0x8, addend: 0x0, symName: __ZNSt3__121__map_node_destructorINS_9allocatorINS_11__tree_nodeINS_12__value_typeINS_12basic_stringIcNS_11char_traitsIcEENS1_IcEEEES8_EEPvEEEEEC2B7v160006ERSC_, symObjAddr: 0x3EEC, symBinAddr: 0x100008BD8, symSize: 0x28 }
  - { offsetInCU: 0xB221, offset: 0x2BBD4, size: 0x8, addend: 0x0, symName: __ZNSt3__110unique_ptrINS_11__tree_nodeINS_12__value_typeINS_12basic_stringIcNS_11char_traitsIcEENS_9allocatorIcEEEES8_EEPvEENS_21__map_node_destructorINS6_ISB_EEEEEC2B7v160006ILb1EvEEPSB_NS_16__dependent_typeINS_27__unique_ptr_deleter_sfinaeISE_EEXT_EE20__good_rval_ref_typeE, symObjAddr: 0x3F14, symBinAddr: 0x100008C00, symSize: 0x5C }
  - { offsetInCU: 0xB270, offset: 0x2BC23, size: 0x8, addend: 0x0, symName: __ZNSt3__117__compressed_pairIPNS_11__tree_nodeINS_12__value_typeINS_12basic_stringIcNS_11char_traitsIcEENS_9allocatorIcEEEES8_EEPvEENS_21__map_node_destructorINS6_ISB_EEEEEC1B7v160006IRSC_SF_EEOT_OT0_, symObjAddr: 0x3F70, symBinAddr: 0x100008C5C, symSize: 0x3C }
  - { offsetInCU: 0xB2C6, offset: 0x2BC79, size: 0x8, addend: 0x0, symName: __ZNSt3__117__compressed_pairIPNS_11__tree_nodeINS_12__value_typeINS_12basic_stringIcNS_11char_traitsIcEENS_9allocatorIcEEEES8_EEPvEENS_21__map_node_destructorINS6_ISB_EEEEEC2B7v160006IRSC_SF_EEOT_OT0_, symObjAddr: 0x3FAC, symBinAddr: 0x100008C98, symSize: 0x48 }
  - { offsetInCU: 0xB31C, offset: 0x2BCCF, size: 0x8, addend: 0x0, symName: __ZNSt3__122__compressed_pair_elemIPNS_11__tree_nodeINS_12__value_typeINS_12basic_stringIcNS_11char_traitsIcEENS_9allocatorIcEEEES8_EEPvEELi0ELb0EEC2B7v160006IRSC_vEEOT_, symObjAddr: 0x3FF4, symBinAddr: 0x100008CE0, symSize: 0x24 }
  - { offsetInCU: 0xB35C, offset: 0x2BD0F, size: 0x8, addend: 0x0, symName: __ZNSt3__122__compressed_pair_elemINS_21__map_node_destructorINS_9allocatorINS_11__tree_nodeINS_12__value_typeINS_12basic_stringIcNS_11char_traitsIcEENS2_IcEEEES9_EEPvEEEEEELi1ELb0EEC2B7v160006ISE_vEEOT_, symObjAddr: 0x4018, symBinAddr: 0x100008D04, symSize: 0x24 }
  - { offsetInCU: 0xB39C, offset: 0x2BD4F, size: 0x8, addend: 0x0, symName: __ZNSt3__19allocatorINS_11__tree_nodeINS_12__value_typeINS_12basic_stringIcNS_11char_traitsIcEENS0_IcEEEES7_EEPvEEE9constructB7v160006IKS7_JRSD_EEEvPT_DpOT0_, symObjAddr: 0x403C, symBinAddr: 0x100008D28, symSize: 0x30 }
  - { offsetInCU: 0xB3F0, offset: 0x2BDA3, size: 0x8, addend: 0x0, symName: __ZNKSt3__117__compressed_pairIPNS_11__tree_nodeINS_12__value_typeINS_12basic_stringIcNS_11char_traitsIcEENS_9allocatorIcEEEES8_EEPvEENS_21__map_node_destructorINS6_ISB_EEEEE5firstB7v160006Ev, symObjAddr: 0x406C, symBinAddr: 0x100008D58, symSize: 0x24 }
  - { offsetInCU: 0xB414, offset: 0x2BDC7, size: 0x8, addend: 0x0, symName: __ZNKSt3__122__compressed_pair_elemIPNS_11__tree_nodeINS_12__value_typeINS_12basic_stringIcNS_11char_traitsIcEENS_9allocatorIcEEEES8_EEPvEELi0ELb0EE5__getB7v160006Ev, symObjAddr: 0x4090, symBinAddr: 0x100008D7C, symSize: 0x14 }
  - { offsetInCU: 0xB438, offset: 0x2BDEB, size: 0x8, addend: 0x0, symName: __ZNSt3__117__compressed_pairIPNS_11__tree_nodeINS_12__value_typeINS_12basic_stringIcNS_11char_traitsIcEENS_9allocatorIcEEEES8_EEPvEENS_21__map_node_destructorINS6_ISB_EEEEE6secondB7v160006Ev, symObjAddr: 0x40A4, symBinAddr: 0x100008D90, symSize: 0x28 }
  - { offsetInCU: 0xB45C, offset: 0x2BE0F, size: 0x8, addend: 0x0, symName: __ZNSt3__122__compressed_pair_elemINS_21__map_node_destructorINS_9allocatorINS_11__tree_nodeINS_12__value_typeINS_12basic_stringIcNS_11char_traitsIcEENS2_IcEEEES9_EEPvEEEEEELi1ELb0EE5__getB7v160006Ev, symObjAddr: 0x40CC, symBinAddr: 0x100008DB8, symSize: 0x14 }
  - { offsetInCU: 0xB480, offset: 0x2BE33, size: 0x8, addend: 0x0, symName: __ZNSt3__19allocatorINS_11__tree_nodeINS_12__value_typeINS_12basic_stringIcNS_11char_traitsIcEENS0_IcEEEES7_EEPvEEE9constructB7v160006IS7_JEEEvPT_DpOT0_, symObjAddr: 0x40E0, symBinAddr: 0x100008DCC, symSize: 0x28 }
  - { offsetInCU: 0xB4C1, offset: 0x2BE74, size: 0x8, addend: 0x0, symName: __ZNSt3__16__treeINS_12__value_typeINS_12basic_stringIcNS_11char_traitsIcEENS_9allocatorIcEEEES7_EENS_19__map_value_compareIS7_S8_NS_4lessIS7_EELb1EEENS5_IS8_EEE4sizeB7v160006Ev, symObjAddr: 0x4448, symBinAddr: 0x100009134, symSize: 0x28 }
  - { offsetInCU: 0xB4E5, offset: 0x2BE98, size: 0x8, addend: 0x0, symName: __ZNKSt3__116__tree_node_baseIPvE15__parent_unsafeB7v160006Ev, symObjAddr: 0x4470, symBinAddr: 0x10000915C, symSize: 0x18 }
  - { offsetInCU: 0xB509, offset: 0x2BEBC, size: 0x8, addend: 0x0, symName: __ZNSt3__116__tree_node_baseIPvE12__set_parentB7v160006EPS2_, symObjAddr: 0x466C, symBinAddr: 0x100009358, symSize: 0x20 }
  - { offsetInCU: 0xB53C, offset: 0x2BEEF, size: 0x8, addend: 0x0, symName: __ZNSt3__117__compressed_pairImNS_19__map_value_compareINS_12basic_stringIcNS_11char_traitsIcEENS_9allocatorIcEEEENS_12__value_typeIS7_S7_EENS_4lessIS7_EELb1EEEE5firstB7v160006Ev, symObjAddr: 0x468C, symBinAddr: 0x100009378, symSize: 0x24 }
  - { offsetInCU: 0xB560, offset: 0x2BF13, size: 0x8, addend: 0x0, symName: __ZNSt3__117__compressed_pairIPNS_11__tree_nodeINS_12__value_typeINS_12basic_stringIcNS_11char_traitsIcEENS_9allocatorIcEEEES8_EEPvEENS_21__map_node_destructorINS6_ISB_EEEEE5firstB7v160006Ev, symObjAddr: 0x46C4, symBinAddr: 0x10000939C, symSize: 0x24 }
  - { offsetInCU: 0xB584, offset: 0x2BF37, size: 0x8, addend: 0x0, symName: __ZNSt3__122__compressed_pair_elemIPNS_11__tree_nodeINS_12__value_typeINS_12basic_stringIcNS_11char_traitsIcEENS_9allocatorIcEEEES8_EEPvEELi0ELb0EE5__getB7v160006Ev, symObjAddr: 0x46E8, symBinAddr: 0x1000093C0, symSize: 0x14 }
  - { offsetInCU: 0xB5A8, offset: 0x2BF5B, size: 0x8, addend: 0x0, symName: __ZNSt3__110unique_ptrINS_11__tree_nodeINS_12__value_typeINS_12basic_stringIcNS_11char_traitsIcEENS_9allocatorIcEEEES8_EEPvEENS_21__map_node_destructorINS6_ISB_EEEEED2B7v160006Ev, symObjAddr: 0x46FC, symBinAddr: 0x1000093D4, symSize: 0x30 }
  - { offsetInCU: 0xB5D0, offset: 0x2BF83, size: 0x8, addend: 0x0, symName: __ZNSt3__110unique_ptrINS_11__tree_nodeINS_12__value_typeINS_12basic_stringIcNS_11char_traitsIcEENS_9allocatorIcEEEES8_EEPvEENS_21__map_node_destructorINS6_ISB_EEEEE5resetB7v160006EPSB_, symObjAddr: 0x472C, symBinAddr: 0x100009404, symSize: 0x78 }
  - { offsetInCU: 0xB612, offset: 0x2BFC5, size: 0x8, addend: 0x0, symName: __ZNSt3__121__map_node_destructorINS_9allocatorINS_11__tree_nodeINS_12__value_typeINS_12basic_stringIcNS_11char_traitsIcEENS1_IcEEEES8_EEPvEEEEEclB7v160006EPSB_, symObjAddr: 0x47A4, symBinAddr: 0x10000947C, symSize: 0xE4 }
  - { offsetInCU: 0xB645, offset: 0x2BFF8, size: 0x8, addend: 0x0, symName: __ZNSt3__116allocator_traitsINS_9allocatorINS_11__tree_nodeINS_12__value_typeINS_12basic_stringIcNS_11char_traitsIcEENS1_IcEEEES8_EEPvEEEEE7destroyB7v160006IS8_vvEEvRSC_PT_, symObjAddr: 0x4888, symBinAddr: 0x100009560, symSize: 0x28 }
  - { offsetInCU: 0xB67F, offset: 0x2C032, size: 0x8, addend: 0x0, symName: __ZNSt3__116allocator_traitsINS_9allocatorINS_11__tree_nodeINS_12__value_typeINS_12basic_stringIcNS_11char_traitsIcEENS1_IcEEEES8_EEPvEEEEE7destroyB7v160006IKS8_vvEEvRSC_PT_, symObjAddr: 0x48B0, symBinAddr: 0x100009588, symSize: 0x28 }
  - { offsetInCU: 0xB6B9, offset: 0x2C06C, size: 0x8, addend: 0x0, symName: __ZNSt3__16__treeINS_12__value_typeINS_12basic_stringIcNS_11char_traitsIcEENS_9allocatorIcEEEES7_EENS_19__map_value_compareIS7_S8_NS_4lessIS7_EELb1EEENS5_IS8_EEE5beginB7v160006Ev, symObjAddr: 0x48D8, symBinAddr: 0x1000095B0, symSize: 0x34 }
  - { offsetInCU: 0xB6DD, offset: 0x2C090, size: 0x8, addend: 0x0, symName: __ZNSt3__114__map_iteratorINS_15__tree_iteratorINS_12__value_typeINS_12basic_stringIcNS_11char_traitsIcEENS_9allocatorIcEEEES8_EEPNS_11__tree_nodeIS9_PvEElEEEC1B7v160006ESE_, symObjAddr: 0x490C, symBinAddr: 0x1000095E4, symSize: 0x34 }
  - { offsetInCU: 0xB714, offset: 0x2C0C7, size: 0x8, addend: 0x0, symName: __ZNSt3__115__tree_iteratorINS_12__value_typeINS_12basic_stringIcNS_11char_traitsIcEENS_9allocatorIcEEEES7_EEPNS_11__tree_nodeIS8_PvEElEC1B7v160006EPNS_15__tree_end_nodeIPNS_16__tree_node_baseISA_EEEE, symObjAddr: 0x4940, symBinAddr: 0x100009618, symSize: 0x34 }
  - { offsetInCU: 0xB74B, offset: 0x2C0FE, size: 0x8, addend: 0x0, symName: __ZNSt3__115__tree_iteratorINS_12__value_typeINS_12basic_stringIcNS_11char_traitsIcEENS_9allocatorIcEEEES7_EEPNS_11__tree_nodeIS8_PvEElEC2B7v160006EPNS_15__tree_end_nodeIPNS_16__tree_node_baseISA_EEEE, symObjAddr: 0x4974, symBinAddr: 0x10000964C, symSize: 0x20 }
  - { offsetInCU: 0xB782, offset: 0x2C135, size: 0x8, addend: 0x0, symName: __ZNSt3__114__map_iteratorINS_15__tree_iteratorINS_12__value_typeINS_12basic_stringIcNS_11char_traitsIcEENS_9allocatorIcEEEES8_EEPNS_11__tree_nodeIS9_PvEElEEEC2B7v160006ESE_, symObjAddr: 0x4994, symBinAddr: 0x10000966C, symSize: 0x20 }
  - { offsetInCU: 0xB7B9, offset: 0x2C16C, size: 0x8, addend: 0x0, symName: __ZNSt3__16__treeINS_12__value_typeINS_12basic_stringIcNS_11char_traitsIcEENS_9allocatorIcEEEES7_EENS_19__map_value_compareIS7_S8_NS_4lessIS7_EELb1EEENS5_IS8_EEE3endB7v160006Ev, symObjAddr: 0x49B4, symBinAddr: 0x10000968C, symSize: 0x34 }
  - { offsetInCU: 0xB7DD, offset: 0x2C190, size: 0x8, addend: 0x0, symName: __ZNSt3__114pointer_traitsIPNS_4pairIKNS_12basic_stringIcNS_11char_traitsIcEENS_9allocatorIcEEEES7_EEE10pointer_toB7v160006ERS9_, symObjAddr: 0x4A4C, symBinAddr: 0x100009724, symSize: 0x14 }
  - { offsetInCU: 0xB7FF, offset: 0x2C1B2, size: 0x8, addend: 0x0, symName: __ZNKSt3__115__tree_iteratorINS_12__value_typeINS_12basic_stringIcNS_11char_traitsIcEENS_9allocatorIcEEEES7_EEPNS_11__tree_nodeIS8_PvEElEptB7v160006Ev, symObjAddr: 0x4A60, symBinAddr: 0x100009738, symSize: 0x2C }
  - { offsetInCU: 0xB823, offset: 0x2C1D6, size: 0x8, addend: 0x0, symName: __ZNSt3__114pointer_traitsIPNS_12__value_typeINS_12basic_stringIcNS_11char_traitsIcEENS_9allocatorIcEEEES7_EEE10pointer_toB7v160006ERS8_, symObjAddr: 0x4A8C, symBinAddr: 0x100009764, symSize: 0x14 }
  - { offsetInCU: 0xB845, offset: 0x2C1F8, size: 0x8, addend: 0x0, symName: __ZNKSt3__115__tree_iteratorINS_12__value_typeINS_12basic_stringIcNS_11char_traitsIcEENS_9allocatorIcEEEES7_EEPNS_11__tree_nodeIS8_PvEElE8__get_npB7v160006Ev, symObjAddr: 0x4AA0, symBinAddr: 0x100009778, symSize: 0x18 }
  - { offsetInCU: 0xB869, offset: 0x2C21C, size: 0x8, addend: 0x0, symName: __ZNSt3__114__map_iteratorINS_15__tree_iteratorINS_12__value_typeINS_12basic_stringIcNS_11char_traitsIcEENS_9allocatorIcEEEES8_EEPNS_11__tree_nodeIS9_PvEElEEEppB7v160006Ev, symObjAddr: 0x4AB8, symBinAddr: 0x100009790, symSize: 0x2C }
  - { offsetInCU: 0xB88D, offset: 0x2C240, size: 0x8, addend: 0x0, symName: __ZNSt3__115__tree_iteratorINS_12__value_typeINS_12basic_stringIcNS_11char_traitsIcEENS_9allocatorIcEEEES7_EEPNS_11__tree_nodeIS8_PvEElEppB7v160006Ev, symObjAddr: 0x4AE4, symBinAddr: 0x1000097BC, symSize: 0x38 }
  - { offsetInCU: 0x26, offset: 0x2C364, size: 0x8, addend: 0x0, symName: __ZN14RequestFactoryC2Ev, symObjAddr: 0x0, symBinAddr: 0x1000098B4, symSize: 0x14 }
  - { offsetInCU: 0x4572, offset: 0x308B0, size: 0x8, addend: 0x0, symName: __ZN14RequestFactoryC2Ev, symObjAddr: 0x0, symBinAddr: 0x1000098B4, symSize: 0x14 }
  - { offsetInCU: 0x459C, offset: 0x308DA, size: 0x8, addend: 0x0, symName: __ZN14RequestFactoryC1Ev, symObjAddr: 0x14, symBinAddr: 0x1000098C8, symSize: 0x2C }
  - { offsetInCU: 0x45C6, offset: 0x30904, size: 0x8, addend: 0x0, symName: __ZN14RequestFactoryD2Ev, symObjAddr: 0x40, symBinAddr: 0x1000098F4, symSize: 0x14 }
  - { offsetInCU: 0x45F0, offset: 0x3092E, size: 0x8, addend: 0x0, symName: __ZN14RequestFactoryD1Ev, symObjAddr: 0x54, symBinAddr: 0x100009908, symSize: 0x2C }
  - { offsetInCU: 0x461A, offset: 0x30958, size: 0x8, addend: 0x0, symName: __ZN14RequestFactory5buildEPNSt3__112basic_stringIcNS0_11char_traitsIcEENS0_9allocatorIcEEEE, symObjAddr: 0x80, symBinAddr: 0x100009934, symSize: 0x60 }
  - { offsetInCU: 0x6583, offset: 0x36F14, size: 0x8, addend: 0x0, symName: __ZNSt3__1eqB7v160006IcNS_11char_traitsIcEENS_9allocatorIcEEEEbRKNS_12basic_stringIT_T0_T1_EEPKS6_, symObjAddr: 0x640, symBinAddr: 0x100009F58, symSize: 0xC0 }
  - { offsetInCU: 0x65EA, offset: 0x36F7B, size: 0x8, addend: 0x0, symName: __ZNSt3__17getlineB7v160006IcNS_11char_traitsIcEENS_9allocatorIcEEEERNS_13basic_istreamIT_T0_EES9_RNS_12basic_stringIS6_S7_T1_EES6_, symObjAddr: 0x840, symBinAddr: 0x10000A10C, symSize: 0x238 }
  - { offsetInCU: 0x66A8, offset: 0x37039, size: 0x8, addend: 0x0, symName: __ZNSt3__17getlineB7v160006IcNS_11char_traitsIcEENS_9allocatorIcEEEERNS_13basic_istreamIT_T0_EES9_RNS_12basic_stringIS6_S7_T1_EE, symObjAddr: 0xA78, symBinAddr: 0x10000A344, symSize: 0x5C }
  - { offsetInCU: 0x6700, offset: 0x37091, size: 0x8, addend: 0x0, symName: __ZNSt3__1neB7v160006IcNS_11char_traitsIcEENS_9allocatorIcEEEEbRKNS_12basic_stringIT_T0_T1_EEPKS6_, symObjAddr: 0xBDC, symBinAddr: 0x10000A408, symSize: 0x34 }
  - { offsetInCU: 0x677D, offset: 0x3710E, size: 0x8, addend: 0x0, symName: __ZNSt3__1neB7v160006ERKNS_20__map_const_iteratorINS_21__tree_const_iteratorINS_12__value_typeINS_12basic_stringIcNS_11char_traitsIcEENS_9allocatorIcEEEES8_EEPNS_11__tree_nodeIS9_PvEElEEEESH_, symObjAddr: 0xF8C, symBinAddr: 0x10000A6F0, symSize: 0x30 }
  - { offsetInCU: 0x67BA, offset: 0x3714B, size: 0x8, addend: 0x0, symName: __ZNSt3__125__debug_db_invalidate_allB7v160006INS_12basic_stringIcNS_11char_traitsIcEENS_9allocatorIcEEEEEEvPT_, symObjAddr: 0x2BDC, symBinAddr: 0x10000AFE4, symSize: 0x10 }
  - { offsetInCU: 0x6A2A, offset: 0x373BB, size: 0x8, addend: 0x0, symName: __ZNSt3__110__str_findB7v160006IcmNS_11char_traitsIcEELm18446744073709551615EEET0_PKT_S3_S6_S3_S3_, symObjAddr: 0x2FF4, symBinAddr: 0x10000B13C, symSize: 0xE4 }
  - { offsetInCU: 0x6AD1, offset: 0x37462, size: 0x8, addend: 0x0, symName: __ZNSt3__118__search_substringB7v160006IcNS_11char_traitsIcEEEEPKT_S5_S5_S5_S5_, symObjAddr: 0x3100, symBinAddr: 0x10000B220, symSize: 0x154 }
  - { offsetInCU: 0x6B6B, offset: 0x374FC, size: 0x8, addend: 0x0, symName: __ZNSt3__123__constexpr_char_memchrB7v160006EPKcim, symObjAddr: 0x3358, symBinAddr: 0x10000B3F8, symSize: 0x34 }
  - { offsetInCU: 0x6BD2, offset: 0x37563, size: 0x8, addend: 0x0, symName: __ZNSt3__1neB7v160006IcNS_11char_traitsIcEEEEbRKNS_19istreambuf_iteratorIT_T0_EES8_, symObjAddr: 0x4BC8, symBinAddr: 0x10000B67C, symSize: 0x34 }
  - { offsetInCU: 0x6C1E, offset: 0x375AF, size: 0x8, addend: 0x0, symName: __ZNSt3__1neB7v160006ERKNS_21__tree_const_iteratorINS_12__value_typeINS_12basic_stringIcNS_11char_traitsIcEENS_9allocatorIcEEEES7_EEPNS_11__tree_nodeIS8_PvEElEESF_, symObjAddr: 0x5214, symBinAddr: 0x10000BB00, symSize: 0x34 }
  - { offsetInCU: 0x6C5B, offset: 0x375EC, size: 0x8, addend: 0x0, symName: __ZNSt3__1eqB7v160006ERKNS_21__tree_const_iteratorINS_12__value_typeINS_12basic_stringIcNS_11char_traitsIcEENS_9allocatorIcEEEES7_EEPNS_11__tree_nodeIS8_PvEElEESF_, symObjAddr: 0x5248, symBinAddr: 0x10000BB34, symSize: 0x30 }
  - { offsetInCU: 0x9199, offset: 0x39B2A, size: 0x8, addend: 0x0, symName: __ZN11HttpRequestC2ERKNSt3__112basic_stringIcNS0_11char_traitsIcEENS0_9allocatorIcEEEE, symObjAddr: 0x0, symBinAddr: 0x100009994, symSize: 0x214 }
  - { offsetInCU: 0x91E5, offset: 0x39B76, size: 0x8, addend: 0x0, symName: __ZNSt3__119basic_istringstreamIcNS_11char_traitsIcEENS_9allocatorIcEEEC1B7v160006ERKNS_12basic_stringIcS2_S4_EEj, symObjAddr: 0x290, symBinAddr: 0x100009BA8, symSize: 0x108 }
  - { offsetInCU: 0x922B, offset: 0x39BBC, size: 0x8, addend: 0x0, symName: __ZN11HttpRequest16parseRequestLineERNSt3__119basic_istringstreamIcNS0_11char_traitsIcEENS0_9allocatorIcEEEE, symObjAddr: 0x398, symBinAddr: 0x100009CB0, symSize: 0xCC }
  - { offsetInCU: 0x925F, offset: 0x39BF0, size: 0x8, addend: 0x0, symName: __ZN11HttpRequest12parseHeadersERNSt3__119basic_istringstreamIcNS0_11char_traitsIcEENS0_9allocatorIcEEEE, symObjAddr: 0x464, symBinAddr: 0x100009D7C, symSize: 0x1DC }
  - { offsetInCU: 0x92D9, offset: 0x39C6A, size: 0x8, addend: 0x0, symName: __ZN11HttpRequest9parseBodyERNSt3__119basic_istringstreamIcNS0_11char_traitsIcEENS0_9allocatorIcEEEE, symObjAddr: 0x700, symBinAddr: 0x10000A018, symSize: 0x50 }
  - { offsetInCU: 0x9312, offset: 0x39CA3, size: 0x8, addend: 0x0, symName: __ZNSt3__119basic_istringstreamIcNS_11char_traitsIcEENS_9allocatorIcEEED1Ev, symObjAddr: 0x750, symBinAddr: 0x10000A068, symSize: 0x70 }
  - { offsetInCU: 0x933E, offset: 0x39CCF, size: 0x8, addend: 0x0, symName: __ZN11HttpRequestC1ERKNSt3__112basic_stringIcNS0_11char_traitsIcEENS0_9allocatorIcEEEE, symObjAddr: 0x80C, symBinAddr: 0x10000A0D8, symSize: 0x34 }
  - { offsetInCU: 0x9376, offset: 0x39D07, size: 0x8, addend: 0x0, symName: __ZNKSt3__112basic_stringIcNS_11char_traitsIcEENS_9allocatorIcEEE6substrB7v160006Emm, symObjAddr: 0xAD4, symBinAddr: 0x10000A3A0, symSize: 0x68 }
  - { offsetInCU: 0x93B8, offset: 0x39D49, size: 0x8, addend: 0x0, symName: __ZNKSt3__112basic_stringIcNS_11char_traitsIcEENS_9allocatorIcEEE4findB7v160006EPKcm, symObjAddr: 0xC10, symBinAddr: 0x10000A43C, symSize: 0x74 }
  - { offsetInCU: 0x9407, offset: 0x39D98, size: 0x8, addend: 0x0, symName: __ZNSt3__112basic_stringIcNS_11char_traitsIcEENS_9allocatorIcEEE6assignINS_19istreambuf_iteratorIcS2_EEEENS_9enable_ifIXsr33__is_exactly_cpp17_input_iteratorIT_EE5valueERS5_E4typeESA_SA_, symObjAddr: 0xD4C, symBinAddr: 0x10000A4B0, symSize: 0xB8 }
  - { offsetInCU: 0x9464, offset: 0x39DF5, size: 0x8, addend: 0x0, symName: __ZNSt3__119istreambuf_iteratorIcNS_11char_traitsIcEEEC1B7v160006ERNS_13basic_istreamIcS2_EE, symObjAddr: 0xE04, symBinAddr: 0x10000A568, symSize: 0x34 }
  - { offsetInCU: 0x949A, offset: 0x39E2B, size: 0x8, addend: 0x0, symName: __ZNSt3__119istreambuf_iteratorIcNS_11char_traitsIcEEEC1B7v160006Ev, symObjAddr: 0xE38, symBinAddr: 0x10000A59C, symSize: 0x2C }
  - { offsetInCU: 0x94C2, offset: 0x39E53, size: 0x8, addend: 0x0, symName: __ZN11HttpRequest8getValueENSt3__112basic_stringIcNS0_11char_traitsIcEENS0_9allocatorIcEEEE, symObjAddr: 0xE64, symBinAddr: 0x10000A5C8, symSize: 0xB4 }
  - { offsetInCU: 0x9505, offset: 0x39E96, size: 0x8, addend: 0x0, symName: __ZNSt3__13mapINS_12basic_stringIcNS_11char_traitsIcEENS_9allocatorIcEEEES6_NS_4lessIS6_EENS4_INS_4pairIKS6_S6_EEEEE4findB7v160006ERSA_, symObjAddr: 0xF18, symBinAddr: 0x10000A67C, symSize: 0x40 }
  - { offsetInCU: 0x9538, offset: 0x39EC9, size: 0x8, addend: 0x0, symName: __ZNSt3__120__map_const_iteratorINS_21__tree_const_iteratorINS_12__value_typeINS_12basic_stringIcNS_11char_traitsIcEENS_9allocatorIcEEEES8_EEPNS_11__tree_nodeIS9_PvEElEEEC1B7v160006ENS_14__map_iteratorINS_15__tree_iteratorIS9_SD_lEEEE, symObjAddr: 0xF58, symBinAddr: 0x10000A6BC, symSize: 0x34 }
  - { offsetInCU: 0x956F, offset: 0x39F00, size: 0x8, addend: 0x0, symName: __ZNKSt3__120__map_const_iteratorINS_21__tree_const_iteratorINS_12__value_typeINS_12basic_stringIcNS_11char_traitsIcEENS_9allocatorIcEEEES8_EEPNS_11__tree_nodeIS9_PvEElEEEptB7v160006Ev, symObjAddr: 0xFF4, symBinAddr: 0x10000A720, symSize: 0x2C }
  - { offsetInCU: 0x9593, offset: 0x39F24, size: 0x8, addend: 0x0, symName: __ZN11HttpRequest8addParamENSt3__112basic_stringIcNS0_11char_traitsIcEENS0_9allocatorIcEEEES6_, symObjAddr: 0x1054, symBinAddr: 0x10000A74C, symSize: 0x40 }
  - { offsetInCU: 0x95D7, offset: 0x39F68, size: 0x8, addend: 0x0, symName: __ZN11HttpRequest6getUriEv, symObjAddr: 0x1094, symBinAddr: 0x10000A78C, symSize: 0x3C }
  - { offsetInCU: 0x95FD, offset: 0x39F8E, size: 0x8, addend: 0x0, symName: __ZN11HttpRequest9getMethodEv, symObjAddr: 0x10D0, symBinAddr: 0x10000A7C8, symSize: 0x3C }
  - { offsetInCU: 0x9623, offset: 0x39FB4, size: 0x8, addend: 0x0, symName: __ZN11HttpRequest4dumpEv, symObjAddr: 0x110C, symBinAddr: 0x10000A804, symSize: 0xEC }
  - { offsetInCU: 0x9657, offset: 0x39FE8, size: 0x8, addend: 0x0, symName: __ZNSt3__120__map_const_iteratorINS_21__tree_const_iteratorINS_12__value_typeINS_12basic_stringIcNS_11char_traitsIcEENS_9allocatorIcEEEES8_EEPNS_11__tree_nodeIS9_PvEElEEEC1B7v160006Ev, symObjAddr: 0x11F8, symBinAddr: 0x10000A8F0, symSize: 0x2C }
  - { offsetInCU: 0x967F, offset: 0x3A010, size: 0x8, addend: 0x0, symName: __ZNSt3__120__map_const_iteratorINS_21__tree_const_iteratorINS_12__value_typeINS_12basic_stringIcNS_11char_traitsIcEENS_9allocatorIcEEEES8_EEPNS_11__tree_nodeIS9_PvEElEEEppB7v160006Ev, symObjAddr: 0x1374, symBinAddr: 0x10000A91C, symSize: 0x2C }
  - { offsetInCU: 0x96A3, offset: 0x3A034, size: 0x8, addend: 0x0, symName: __ZN11HttpRequestD1Ev, symObjAddr: 0x13A0, symBinAddr: 0x10000A948, symSize: 0x2C }
  - { offsetInCU: 0x96CB, offset: 0x3A05C, size: 0x8, addend: 0x0, symName: __ZN11HttpRequestD0Ev, symObjAddr: 0x13CC, symBinAddr: 0x10000A974, symSize: 0x58 }
  - { offsetInCU: 0x96F3, offset: 0x3A084, size: 0x8, addend: 0x0, symName: __ZNSt3__119basic_istringstreamIcNS_11char_traitsIcEENS_9allocatorIcEEED2Ev, symObjAddr: 0x1444, symBinAddr: 0x10000A9CC, symSize: 0x9C }
  - { offsetInCU: 0x972B, offset: 0x3A0BC, size: 0x8, addend: 0x0, symName: __ZTv0_n24_NSt3__119basic_istringstreamIcNS_11char_traitsIcEENS_9allocatorIcEEED1Ev, symObjAddr: 0x14E0, symBinAddr: 0x10000AA68, symSize: 0x28 }
  - { offsetInCU: 0x9747, offset: 0x3A0D8, size: 0x8, addend: 0x0, symName: __ZN11HttpRequestD2Ev, symObjAddr: 0x15AC, symBinAddr: 0x10000AA90, symSize: 0x140 }
  - { offsetInCU: 0x9774, offset: 0x3A105, size: 0x8, addend: 0x0, symName: __ZNSt3__115basic_stringbufIcNS_11char_traitsIcEENS_9allocatorIcEEEC1B7v160006ERKNS_12basic_stringIcS2_S4_EEj, symObjAddr: 0x2540, symBinAddr: 0x10000ABD0, symSize: 0x3C }
  - { offsetInCU: 0x97B8, offset: 0x3A149, size: 0x8, addend: 0x0, symName: __ZNSt3__115basic_stringbufIcNS_11char_traitsIcEENS_9allocatorIcEEEC2B7v160006ERKNS_12basic_stringIcS2_S4_EEj, symObjAddr: 0x25EC, symBinAddr: 0x10000AC0C, symSize: 0xD8 }
  - { offsetInCU: 0x97FC, offset: 0x3A18D, size: 0x8, addend: 0x0, symName: __ZNKSt3__112basic_stringIcNS_11char_traitsIcEENS_9allocatorIcEEE13get_allocatorB7v160006Ev, symObjAddr: 0x26C4, symBinAddr: 0x10000ACE4, symSize: 0x24 }
  - { offsetInCU: 0x9820, offset: 0x3A1B1, size: 0x8, addend: 0x0, symName: __ZNSt3__112basic_stringIcNS_11char_traitsIcEENS_9allocatorIcEEEC1B7v160006ERKS4_, symObjAddr: 0x26E8, symBinAddr: 0x10000AD08, symSize: 0x34 }
  - { offsetInCU: 0x9857, offset: 0x3A1E8, size: 0x8, addend: 0x0, symName: __ZNKSt3__112basic_stringIcNS_11char_traitsIcEENS_9allocatorIcEEE7__allocB7v160006Ev, symObjAddr: 0x271C, symBinAddr: 0x10000AD3C, symSize: 0x24 }
  - { offsetInCU: 0x987B, offset: 0x3A20C, size: 0x8, addend: 0x0, symName: __ZNKSt3__117__compressed_pairINS_12basic_stringIcNS_11char_traitsIcEENS_9allocatorIcEEE5__repES5_E6secondB7v160006Ev, symObjAddr: 0x2740, symBinAddr: 0x10000AD60, symSize: 0x24 }
  - { offsetInCU: 0x989F, offset: 0x3A230, size: 0x8, addend: 0x0, symName: __ZNKSt3__122__compressed_pair_elemINS_9allocatorIcEELi1ELb1EE5__getB7v160006Ev, symObjAddr: 0x2764, symBinAddr: 0x10000AD84, symSize: 0x14 }
  - { offsetInCU: 0x98C3, offset: 0x3A254, size: 0x8, addend: 0x0, symName: __ZNSt3__112basic_stringIcNS_11char_traitsIcEENS_9allocatorIcEEEC2B7v160006ERKS4_, symObjAddr: 0x2778, symBinAddr: 0x10000AD98, symSize: 0x48 }
  - { offsetInCU: 0x98FA, offset: 0x3A28B, size: 0x8, addend: 0x0, symName: __ZNSt3__117__compressed_pairINS_12basic_stringIcNS_11char_traitsIcEENS_9allocatorIcEEE5__repES5_EC1B7v160006INS_18__default_init_tagERKS5_EEOT_OT0_, symObjAddr: 0x27C0, symBinAddr: 0x10000ADE0, symSize: 0x3C }
  - { offsetInCU: 0x9950, offset: 0x3A2E1, size: 0x8, addend: 0x0, symName: __ZNSt3__117__compressed_pairINS_12basic_stringIcNS_11char_traitsIcEENS_9allocatorIcEEE5__repES5_EC2B7v160006INS_18__default_init_tagERKS5_EEOT_OT0_, symObjAddr: 0x27FC, symBinAddr: 0x10000AE1C, symSize: 0x40 }
  - { offsetInCU: 0x99A6, offset: 0x3A337, size: 0x8, addend: 0x0, symName: __ZNSt3__122__compressed_pair_elemINS_9allocatorIcEELi1ELb1EEC2B7v160006IRKS2_vEEOT_, symObjAddr: 0x283C, symBinAddr: 0x10000AE5C, symSize: 0x18 }
  - { offsetInCU: 0x9A04, offset: 0x3A395, size: 0x8, addend: 0x0, symName: __ZNSt3__112basic_stringIcNS_11char_traitsIcEENS_9allocatorIcEEE5clearB7v160006Ev, symObjAddr: 0x28DC, symBinAddr: 0x10000AE74, symSize: 0x9C }
  - { offsetInCU: 0x9A2B, offset: 0x3A3BC, size: 0x8, addend: 0x0, symName: __ZNSt3__111char_traitsIcE2eqEcc, symObjAddr: 0x2A54, symBinAddr: 0x10000AF10, symSize: 0x28 }
  - { offsetInCU: 0x9A5B, offset: 0x3A3EC, size: 0x8, addend: 0x0, symName: __ZNKSt3__112basic_stringIcNS_11char_traitsIcEENS_9allocatorIcEEE8max_sizeB7v160006Ev, symObjAddr: 0x2A7C, symBinAddr: 0x10000AF38, symSize: 0xAC }
  - { offsetInCU: 0x9AAC, offset: 0x3A43D, size: 0x8, addend: 0x0, symName: __ZNSt3__111char_traitsIcE6assignERcRKc, symObjAddr: 0x2C60, symBinAddr: 0x10000AFF4, symSize: 0x24 }
  - { offsetInCU: 0x9ADC, offset: 0x3A46D, size: 0x8, addend: 0x0, symName: __ZNSt3__112basic_stringIcNS_11char_traitsIcEENS_9allocatorIcEEE18__get_long_pointerB7v160006Ev, symObjAddr: 0x2C84, symBinAddr: 0x10000B018, symSize: 0x28 }
  - { offsetInCU: 0x9B00, offset: 0x3A491, size: 0x8, addend: 0x0, symName: __ZNSt3__112basic_stringIcNS_11char_traitsIcEENS_9allocatorIcEEE19__get_short_pointerB7v160006Ev, symObjAddr: 0x2CAC, symBinAddr: 0x10000B040, symSize: 0x28 }
  - { offsetInCU: 0x9B24, offset: 0x3A4B5, size: 0x8, addend: 0x0, symName: __ZNSt3__112basic_stringIcNS_11char_traitsIcEENS_9allocatorIcEEE16__set_short_sizeB7v160006Em, symObjAddr: 0x2CD4, symBinAddr: 0x10000B068, symSize: 0x78 }
  - { offsetInCU: 0x9B57, offset: 0x3A4E8, size: 0x8, addend: 0x0, symName: __ZNSt3__114pointer_traitsIPcE10pointer_toB7v160006ERc, symObjAddr: 0x2D84, symBinAddr: 0x10000B0E0, symSize: 0x14 }
  - { offsetInCU: 0x9B79, offset: 0x3A50A, size: 0x8, addend: 0x0, symName: __ZNSt3__114numeric_limitsImE3maxB7v160006Ev, symObjAddr: 0x2DC4, symBinAddr: 0x10000B0F4, symSize: 0x14 }
  - { offsetInCU: 0x9B8D, offset: 0x3A51E, size: 0x8, addend: 0x0, symName: __ZNSt3__123__libcpp_numeric_limitsImLb1EE3maxB7v160006Ev, symObjAddr: 0x2DD8, symBinAddr: 0x10000B108, symSize: 0x8 }
  - { offsetInCU: 0x9BA1, offset: 0x3A532, size: 0x8, addend: 0x0, symName: __ZNSt3__19allocatorIcEC1B7v160006Ev, symObjAddr: 0x2F1C, symBinAddr: 0x10000B110, symSize: 0x2C }
  - { offsetInCU: 0x9BC9, offset: 0x3A55A, size: 0x8, addend: 0x0, symName: __ZNSt3__111char_traitsIcE4findEPKcmRS2_, symObjAddr: 0x3254, symBinAddr: 0x10000B374, symSize: 0x84 }
  - { offsetInCU: 0x9C1B, offset: 0x3A5AC, size: 0x8, addend: 0x0, symName: __ZNSt3__119istreambuf_iteratorIcNS_11char_traitsIcEEEC2B7v160006ERNS_13basic_istreamIcS2_EE, symObjAddr: 0x4978, symBinAddr: 0x10000B42C, symSize: 0x68 }
  - { offsetInCU: 0x9C51, offset: 0x3A5E2, size: 0x8, addend: 0x0, symName: __ZNSt3__119istreambuf_iteratorIcNS_11char_traitsIcEEEC2B7v160006Ev, symObjAddr: 0x49E0, symBinAddr: 0x10000B494, symSize: 0x18 }
  - { offsetInCU: 0x9C79, offset: 0x3A60A, size: 0x8, addend: 0x0, symName: __ZNSt3__112basic_stringIcNS_11char_traitsIcEENS_9allocatorIcEEEC1B7v160006INS_19istreambuf_iteratorIcS2_EEvEET_S9_RKS4_, symObjAddr: 0x49F8, symBinAddr: 0x10000B4AC, symSize: 0x44 }
  - { offsetInCU: 0x9CD8, offset: 0x3A669, size: 0x8, addend: 0x0, symName: __ZNSt3__112basic_stringIcNS_11char_traitsIcEENS_9allocatorIcEEEC2B7v160006INS_19istreambuf_iteratorIcS2_EEvEET_S9_RKS4_, symObjAddr: 0x4A3C, symBinAddr: 0x10000B4F0, symSize: 0x68 }
  - { offsetInCU: 0x9D37, offset: 0x3A6C8, size: 0x8, addend: 0x0, symName: __ZNSt3__112basic_stringIcNS_11char_traitsIcEENS_9allocatorIcEEE6__initINS_19istreambuf_iteratorIcS2_EEEENS_9enable_ifIXsr33__is_exactly_cpp17_input_iteratorIT_EE5valueEvE4typeESA_SA_, symObjAddr: 0x4AA4, symBinAddr: 0x10000B558, symSize: 0x124 }
  - { offsetInCU: 0x9D85, offset: 0x3A716, size: 0x8, addend: 0x0, symName: __ZNKSt3__119istreambuf_iteratorIcNS_11char_traitsIcEEEdeB7v160006Ev, symObjAddr: 0x4BFC, symBinAddr: 0x10000B6B0, symSize: 0x2C }
  - { offsetInCU: 0x9DA9, offset: 0x3A73A, size: 0x8, addend: 0x0, symName: __ZNSt3__119istreambuf_iteratorIcNS_11char_traitsIcEEEppB7v160006Ev, symObjAddr: 0x4C28, symBinAddr: 0x10000B6DC, symSize: 0x30 }
  - { offsetInCU: 0x9DCD, offset: 0x3A75E, size: 0x8, addend: 0x0, symName: __ZNSt3__116allocator_traitsINS_9allocatorIcEEE10deallocateB7v160006ERS2_Pcm, symObjAddr: 0x4C58, symBinAddr: 0x10000B70C, symSize: 0x34 }
  - { offsetInCU: 0x9E0E, offset: 0x3A79F, size: 0x8, addend: 0x0, symName: __ZNKSt3__112basic_stringIcNS_11char_traitsIcEENS_9allocatorIcEEE14__get_long_capB7v160006Ev, symObjAddr: 0x4C8C, symBinAddr: 0x10000B740, symSize: 0x30 }
  - { offsetInCU: 0x9E32, offset: 0x3A7C3, size: 0x8, addend: 0x0, symName: __ZNKSt3__119istreambuf_iteratorIcNS_11char_traitsIcEEE5equalB7v160006ERKS3_, symObjAddr: 0x4CBC, symBinAddr: 0x10000B770, symSize: 0x4C }
  - { offsetInCU: 0x9E64, offset: 0x3A7F5, size: 0x8, addend: 0x0, symName: __ZNKSt3__119istreambuf_iteratorIcNS_11char_traitsIcEEE14__test_for_eofB7v160006Ev, symObjAddr: 0x4D08, symBinAddr: 0x10000B7BC, symSize: 0x80 }
  - { offsetInCU: 0x9E88, offset: 0x3A819, size: 0x8, addend: 0x0, symName: __ZNSt3__19allocatorIcE10deallocateB7v160006EPcm, symObjAddr: 0x4DF8, symBinAddr: 0x10000B83C, symSize: 0x70 }
  - { offsetInCU: 0x9EC8, offset: 0x3A859, size: 0x8, addend: 0x0, symName: __ZNSt3__16__treeINS_12__value_typeINS_12basic_stringIcNS_11char_traitsIcEENS_9allocatorIcEEEES7_EENS_19__map_value_compareIS7_S8_NS_4lessIS7_EELb1EEENS5_IS8_EEE4findIS7_EENS_15__tree_iteratorIS8_PNS_11__tree_nodeIS8_PvEElEERKT_, symObjAddr: 0x4E68, symBinAddr: 0x10000B8AC, symSize: 0xF8 }
  - { offsetInCU: 0x9F16, offset: 0x3A8A7, size: 0x8, addend: 0x0, symName: __ZNSt3__16__treeINS_12__value_typeINS_12basic_stringIcNS_11char_traitsIcEENS_9allocatorIcEEEES7_EENS_19__map_value_compareIS7_S8_NS_4lessIS7_EELb1EEENS5_IS8_EEE13__lower_boundIS7_EENS_15__tree_iteratorIS8_PNS_11__tree_nodeIS8_PvEElEERKT_SK_PNS_15__tree_end_nodeIPNS_16__tree_node_baseISI_EEEE, symObjAddr: 0x4F94, symBinAddr: 0x10000B9A4, symSize: 0xA4 }
  - { offsetInCU: 0x9F73, offset: 0x3A904, size: 0x8, addend: 0x0, symName: __ZNKSt3__115__tree_iteratorINS_12__value_typeINS_12basic_stringIcNS_11char_traitsIcEENS_9allocatorIcEEEES7_EEPNS_11__tree_nodeIS8_PvEElEdeB7v160006Ev, symObjAddr: 0x50A0, symBinAddr: 0x10000BA48, symSize: 0x28 }
  - { offsetInCU: 0x9F97, offset: 0x3A928, size: 0x8, addend: 0x0, symName: __ZNSt3__120__map_const_iteratorINS_21__tree_const_iteratorINS_12__value_typeINS_12basic_stringIcNS_11char_traitsIcEENS_9allocatorIcEEEES8_EEPNS_11__tree_nodeIS9_PvEElEEEC2B7v160006ENS_14__map_iteratorINS_15__tree_iteratorIS9_SD_lEEEE, symObjAddr: 0x5184, symBinAddr: 0x10000BA70, symSize: 0x3C }
  - { offsetInCU: 0x9FCE, offset: 0x3A95F, size: 0x8, addend: 0x0, symName: __ZNSt3__121__tree_const_iteratorINS_12__value_typeINS_12basic_stringIcNS_11char_traitsIcEENS_9allocatorIcEEEES7_EEPNS_11__tree_nodeIS8_PvEElEC1B7v160006ENS_15__tree_iteratorIS8_SC_lEE, symObjAddr: 0x51C0, symBinAddr: 0x10000BAAC, symSize: 0x34 }
  - { offsetInCU: 0xA005, offset: 0x3A996, size: 0x8, addend: 0x0, symName: __ZNSt3__121__tree_const_iteratorINS_12__value_typeINS_12basic_stringIcNS_11char_traitsIcEENS_9allocatorIcEEEES7_EEPNS_11__tree_nodeIS8_PvEElEC2B7v160006ENS_15__tree_iteratorIS8_SC_lEE, symObjAddr: 0x51F4, symBinAddr: 0x10000BAE0, symSize: 0x20 }
  - { offsetInCU: 0xA03C, offset: 0x3A9CD, size: 0x8, addend: 0x0, symName: __ZNSt3__114pointer_traitsIPKNS_4pairIKNS_12basic_stringIcNS_11char_traitsIcEENS_9allocatorIcEEEES7_EEE10pointer_toB7v160006ERSA_, symObjAddr: 0x5278, symBinAddr: 0x10000BB64, symSize: 0x14 }
  - { offsetInCU: 0xA05E, offset: 0x3A9EF, size: 0x8, addend: 0x0, symName: __ZNKSt3__121__tree_const_iteratorINS_12__value_typeINS_12basic_stringIcNS_11char_traitsIcEENS_9allocatorIcEEEES7_EEPNS_11__tree_nodeIS8_PvEElEptB7v160006Ev, symObjAddr: 0x528C, symBinAddr: 0x10000BB78, symSize: 0x2C }
  - { offsetInCU: 0xA082, offset: 0x3AA13, size: 0x8, addend: 0x0, symName: __ZNSt3__114pointer_traitsIPKNS_12__value_typeINS_12basic_stringIcNS_11char_traitsIcEENS_9allocatorIcEEEES7_EEE10pointer_toB7v160006ERS9_, symObjAddr: 0x52B8, symBinAddr: 0x10000BBA4, symSize: 0x14 }
  - { offsetInCU: 0xA0A4, offset: 0x3AA35, size: 0x8, addend: 0x0, symName: __ZNKSt3__121__tree_const_iteratorINS_12__value_typeINS_12basic_stringIcNS_11char_traitsIcEENS_9allocatorIcEEEES7_EEPNS_11__tree_nodeIS8_PvEElE8__get_npB7v160006Ev, symObjAddr: 0x52CC, symBinAddr: 0x10000BBB8, symSize: 0x18 }
  - { offsetInCU: 0xA0C8, offset: 0x3AA59, size: 0x8, addend: 0x0, symName: __ZNSt3__120__map_const_iteratorINS_21__tree_const_iteratorINS_12__value_typeINS_12basic_stringIcNS_11char_traitsIcEENS_9allocatorIcEEEES8_EEPNS_11__tree_nodeIS9_PvEElEEEC2B7v160006Ev, symObjAddr: 0x5344, symBinAddr: 0x10000BBD0, symSize: 0x2C }
  - { offsetInCU: 0xA0F0, offset: 0x3AA81, size: 0x8, addend: 0x0, symName: __ZNSt3__121__tree_const_iteratorINS_12__value_typeINS_12basic_stringIcNS_11char_traitsIcEENS_9allocatorIcEEEES7_EEPNS_11__tree_nodeIS8_PvEElEC1B7v160006Ev, symObjAddr: 0x5370, symBinAddr: 0x10000BBFC, symSize: 0x2C }
  - { offsetInCU: 0xA118, offset: 0x3AAA9, size: 0x8, addend: 0x0, symName: __ZNSt3__121__tree_const_iteratorINS_12__value_typeINS_12basic_stringIcNS_11char_traitsIcEENS_9allocatorIcEEEES7_EEPNS_11__tree_nodeIS8_PvEElEC2B7v160006Ev, symObjAddr: 0x539C, symBinAddr: 0x10000BC28, symSize: 0x14 }
  - { offsetInCU: 0xA140, offset: 0x3AAD1, size: 0x8, addend: 0x0, symName: __ZNSt3__121__tree_const_iteratorINS_12__value_typeINS_12basic_stringIcNS_11char_traitsIcEENS_9allocatorIcEEEES7_EEPNS_11__tree_nodeIS8_PvEElEppB7v160006Ev, symObjAddr: 0x53E4, symBinAddr: 0x10000BC3C, symSize: 0x38 }
  - { offsetInCU: 0x86BE, offset: 0x43207, size: 0x8, addend: 0x0, symName: __ZN8ResponseC2Ev, symObjAddr: 0x0, symBinAddr: 0x10000BC74, symSize: 0x78 }
  - { offsetInCU: 0x86E8, offset: 0x43231, size: 0x8, addend: 0x0, symName: __ZN8ResponseC1Ev, symObjAddr: 0x108, symBinAddr: 0x10000BCEC, symSize: 0x2C }
  - { offsetInCU: 0x8713, offset: 0x4325C, size: 0x8, addend: 0x0, symName: __ZN8Response13setStatusCodeEi, symObjAddr: 0x134, symBinAddr: 0x10000BD18, symSize: 0x20 }
  - { offsetInCU: 0x8748, offset: 0x43291, size: 0x8, addend: 0x0, symName: __ZN8Response9setHeaderERKNSt3__112basic_stringIcNS0_11char_traitsIcEENS0_9allocatorIcEEEES8_, symObjAddr: 0x154, symBinAddr: 0x10000BD38, symSize: 0x44 }
  - { offsetInCU: 0x878A, offset: 0x432D3, size: 0x8, addend: 0x0, symName: __ZN8Response7setBodyERKNSt3__112basic_stringIcNS0_11char_traitsIcEENS0_9allocatorIcEEEE, symObjAddr: 0x260, symBinAddr: 0x10000BD7C, symSize: 0x118 }
  - { offsetInCU: 0x88AB, offset: 0x433F4, size: 0x8, addend: 0x0, symName: __ZNK8Response8toStringEv, symObjAddr: 0x5B0, symBinAddr: 0x10000BE94, symSize: 0x1D8 }
  - { offsetInCU: 0x8921, offset: 0x4346A, size: 0x8, addend: 0x0, symName: __ZNSt3__119basic_ostringstreamIcNS_11char_traitsIcEENS_9allocatorIcEEEC1B7v160006Ev, symObjAddr: 0x788, symBinAddr: 0x10000C06C, symSize: 0xF8 }
  - { offsetInCU: 0x8949, offset: 0x43492, size: 0x8, addend: 0x0, symName: __ZNKSt3__13mapINS_12basic_stringIcNS_11char_traitsIcEENS_9allocatorIcEEEES6_NS_4lessIS6_EENS4_INS_4pairIKS6_S6_EEEEE5beginB7v160006Ev, symObjAddr: 0x8C8, symBinAddr: 0x10000C164, symSize: 0x38 }
  - { offsetInCU: 0x896D, offset: 0x434B6, size: 0x8, addend: 0x0, symName: __ZNKSt3__13mapINS_12basic_stringIcNS_11char_traitsIcEENS_9allocatorIcEEEES6_NS_4lessIS6_EENS4_INS_4pairIKS6_S6_EEEEE3endB7v160006Ev, symObjAddr: 0x930, symBinAddr: 0x10000C19C, symSize: 0x38 }
  - { offsetInCU: 0x8991, offset: 0x434DA, size: 0x8, addend: 0x0, symName: __ZNKSt3__119basic_ostringstreamIcNS_11char_traitsIcEENS_9allocatorIcEEE3strB7v160006Ev, symObjAddr: 0xA0C, symBinAddr: 0x10000C1D4, symSize: 0x30 }
  - { offsetInCU: 0x89BA, offset: 0x43503, size: 0x8, addend: 0x0, symName: __ZNSt3__119basic_ostringstreamIcNS_11char_traitsIcEENS_9allocatorIcEEED1Ev, symObjAddr: 0xA3C, symBinAddr: 0x10000C204, symSize: 0x70 }
  - { offsetInCU: 0x89EB, offset: 0x43534, size: 0x8, addend: 0x0, symName: __ZNSt3__119basic_ostringstreamIcNS_11char_traitsIcEENS_9allocatorIcEEED2Ev, symObjAddr: 0xC38, symBinAddr: 0x10000C274, symSize: 0x9C }
  - { offsetInCU: 0x8A23, offset: 0x4356C, size: 0x8, addend: 0x0, symName: __ZTv0_n24_NSt3__119basic_ostringstreamIcNS_11char_traitsIcEENS_9allocatorIcEEED1Ev, symObjAddr: 0xCD4, symBinAddr: 0x10000C310, symSize: 0x28 }
  - { offsetInCU: 0x8A4E, offset: 0x43597, size: 0x8, addend: 0x0, symName: __ZNSt3__113basic_ostreamIcNS_11char_traitsIcEEEC2B7v160006EPNS_15basic_streambufIcS2_EE, symObjAddr: 0x35D4, symBinAddr: 0x10000C338, symSize: 0x60 }
  - { offsetInCU: 0x8AAE, offset: 0x435F7, size: 0x8, addend: 0x0, symName: __ZNKSt3__16__treeINS_12__value_typeINS_12basic_stringIcNS_11char_traitsIcEENS_9allocatorIcEEEES7_EENS_19__map_value_compareIS7_S8_NS_4lessIS7_EELb1EEENS5_IS8_EEE5beginB7v160006Ev, symObjAddr: 0x3E8C, symBinAddr: 0x10000C398, symSize: 0x34 }
  - { offsetInCU: 0x8AD2, offset: 0x4361B, size: 0x8, addend: 0x0, symName: __ZNSt3__120__map_const_iteratorINS_21__tree_const_iteratorINS_12__value_typeINS_12basic_stringIcNS_11char_traitsIcEENS_9allocatorIcEEEES8_EEPNS_11__tree_nodeIS9_PvEElEEEC1B7v160006ESE_, symObjAddr: 0x3EC0, symBinAddr: 0x10000C3CC, symSize: 0x34 }
  - { offsetInCU: 0x8B09, offset: 0x43652, size: 0x8, addend: 0x0, symName: __ZNKSt3__16__treeINS_12__value_typeINS_12basic_stringIcNS_11char_traitsIcEENS_9allocatorIcEEEES7_EENS_19__map_value_compareIS7_S8_NS_4lessIS7_EELb1EEENS5_IS8_EEE12__begin_nodeB7v160006Ev, symObjAddr: 0x3EF4, symBinAddr: 0x10000C400, symSize: 0x14 }
  - { offsetInCU: 0x8B2D, offset: 0x43676, size: 0x8, addend: 0x0, symName: __ZNSt3__121__tree_const_iteratorINS_12__value_typeINS_12basic_stringIcNS_11char_traitsIcEENS_9allocatorIcEEEES7_EEPNS_11__tree_nodeIS8_PvEElEC1B7v160006EPNS_15__tree_end_nodeIPNS_16__tree_node_baseISA_EEEE, symObjAddr: 0x3F08, symBinAddr: 0x10000C414, symSize: 0x34 }
  - { offsetInCU: 0x8B64, offset: 0x436AD, size: 0x8, addend: 0x0, symName: __ZNSt3__121__tree_const_iteratorINS_12__value_typeINS_12basic_stringIcNS_11char_traitsIcEENS_9allocatorIcEEEES7_EEPNS_11__tree_nodeIS8_PvEElEC2B7v160006EPNS_15__tree_end_nodeIPNS_16__tree_node_baseISA_EEEE, symObjAddr: 0x3F3C, symBinAddr: 0x10000C448, symSize: 0x20 }
  - { offsetInCU: 0x8B9B, offset: 0x436E4, size: 0x8, addend: 0x0, symName: __ZNSt3__120__map_const_iteratorINS_21__tree_const_iteratorINS_12__value_typeINS_12basic_stringIcNS_11char_traitsIcEENS_9allocatorIcEEEES8_EEPNS_11__tree_nodeIS9_PvEElEEEC2B7v160006ESE_, symObjAddr: 0x3F5C, symBinAddr: 0x10000C468, symSize: 0x20 }
  - { offsetInCU: 0x8BD2, offset: 0x4371B, size: 0x8, addend: 0x0, symName: __ZNKSt3__16__treeINS_12__value_typeINS_12basic_stringIcNS_11char_traitsIcEENS_9allocatorIcEEEES7_EENS_19__map_value_compareIS7_S8_NS_4lessIS7_EELb1EEENS5_IS8_EEE3endB7v160006Ev, symObjAddr: 0x3F7C, symBinAddr: 0x10000C488, symSize: 0x34 }
  - { offsetInCU: 0x26, offset: 0x4378C, size: 0x8, addend: 0x0, symName: __ZN16ProcessorFactory5buildEP7Request, symObjAddr: 0x0, symBinAddr: 0x10000C4BC, symSize: 0x38 }
  - { offsetInCU: 0x5946, offset: 0x490AC, size: 0x8, addend: 0x0, symName: __ZN16ProcessorFactory5buildEP7Request, symObjAddr: 0x0, symBinAddr: 0x10000C4BC, symSize: 0x38 }
  - { offsetInCU: 0x59C5, offset: 0x4912B, size: 0x8, addend: 0x0, symName: __ZN21ProcessorImplDirectFsC1Ev, symObjAddr: 0x38, symBinAddr: 0x10000C4F4, symSize: 0x2C }
  - { offsetInCU: 0x59EF, offset: 0x49155, size: 0x8, addend: 0x0, symName: __ZN21ProcessorImplDirectFsC2Ev, symObjAddr: 0x64, symBinAddr: 0x10000C520, symSize: 0x44 }
  - { offsetInCU: 0x5A19, offset: 0x4917F, size: 0x8, addend: 0x0, symName: __ZN9ProcessorC2Ev, symObjAddr: 0xA8, symBinAddr: 0x10000C564, symSize: 0x24 }
  - { offsetInCU: 0x26, offset: 0x491D9, size: 0x8, addend: 0x0, symName: __ZN21ProcessorImplDirectFs7processEP7Request, symObjAddr: 0x0, symBinAddr: 0x10000C588, symSize: 0x1C }
  - { offsetInCU: 0x58A8, offset: 0x4EA5B, size: 0x8, addend: 0x0, symName: __ZN21ProcessorImplDirectFs7processEP7Request, symObjAddr: 0x0, symBinAddr: 0x10000C588, symSize: 0x1C }
  - { offsetInCU: 0x26, offset: 0x4EAC9, size: 0x8, addend: 0x0, symName: __ZN9ProcessorD2Ev, symObjAddr: 0x0, symBinAddr: 0x10000C5A4, symSize: 0x14 }
  - { offsetInCU: 0x28B6, offset: 0x51359, size: 0x8, addend: 0x0, symName: __ZN9ProcessorD2Ev, symObjAddr: 0x0, symBinAddr: 0x10000C5A4, symSize: 0x14 }
  - { offsetInCU: 0x28E0, offset: 0x51383, size: 0x8, addend: 0x0, symName: __ZN9ProcessorD1Ev, symObjAddr: 0x14, symBinAddr: 0x10000C5B8, symSize: 0x14 }
  - { offsetInCU: 0x7704, offset: 0x58AB6, size: 0x8, addend: 0x0, symName: __ZN10HttpServerC2Ev, symObjAddr: 0x0, symBinAddr: 0x10000C5CC, symSize: 0x94 }
  - { offsetInCU: 0x772E, offset: 0x58AE0, size: 0x8, addend: 0x0, symName: __ZN17ConnectorListenerC2Ev, symObjAddr: 0x94, symBinAddr: 0x10000C660, symSize: 0x24 }
  - { offsetInCU: 0x7758, offset: 0x58B0A, size: 0x8, addend: 0x0, symName: __ZNSt3__13mapIiiNS_4lessIiEENS_9allocatorINS_4pairIKiiEEEEEC1B7v160006Ev, symObjAddr: 0xB8, symBinAddr: 0x10000C684, symSize: 0x2C }
  - { offsetInCU: 0x7780, offset: 0x58B32, size: 0x8, addend: 0x0, symName: __ZN10HttpServerC1Ev, symObjAddr: 0xF0, symBinAddr: 0x10000C6B0, symSize: 0x2C }
  - { offsetInCU: 0x77AA, offset: 0x58B5C, size: 0x8, addend: 0x0, symName: __ZN10HttpServerD2Ev, symObjAddr: 0x11C, symBinAddr: 0x10000C6DC, symSize: 0x7C }
  - { offsetInCU: 0x77D4, offset: 0x58B86, size: 0x8, addend: 0x0, symName: __ZNSt3__13mapIiiNS_4lessIiEENS_9allocatorINS_4pairIKiiEEEEED1B7v160006Ev, symObjAddr: 0x198, symBinAddr: 0x10000C758, symSize: 0x2C }
  - { offsetInCU: 0x77FC, offset: 0x58BAE, size: 0x8, addend: 0x0, symName: __ZN10HttpServerD1Ev, symObjAddr: 0x1C4, symBinAddr: 0x10000C784, symSize: 0x2C }
  - { offsetInCU: 0x7827, offset: 0x58BD9, size: 0x8, addend: 0x0, symName: __Z6shutFdi, symObjAddr: 0x1F0, symBinAddr: 0x10000C7B0, symSize: 0x50 }
  - { offsetInCU: 0x7850, offset: 0x58C02, size: 0x8, addend: 0x0, symName: __ZN10HttpServer4initENSt3__112basic_stringIcNS0_11char_traitsIcEENS0_9allocatorIcEEEEi, symObjAddr: 0x240, symBinAddr: 0x10000C800, symSize: 0x130 }
  - { offsetInCU: 0x78E0, offset: 0x58C92, size: 0x8, addend: 0x0, symName: __ZN10HttpServer11onIncommingE14ConnectorEvent, symObjAddr: 0x3C8, symBinAddr: 0x10000C930, symSize: 0x14 }
  - { offsetInCU: 0x7916, offset: 0x58CC8, size: 0x8, addend: 0x0, symName: __ZN10HttpServer15onDataReceivingE14ConnectorEvent, symObjAddr: 0x3DC, symBinAddr: 0x10000C944, symSize: 0xF8 }
  - { offsetInCU: 0x7983, offset: 0x58D35, size: 0x8, addend: 0x0, symName: __ZN10HttpServer11readRequestEi, symObjAddr: 0x4D4, symBinAddr: 0x10000CA3C, symSize: 0x1F4 }
  - { offsetInCU: 0x79E7, offset: 0x58D99, size: 0x8, addend: 0x0, symName: __ZN10HttpServer12sendResponseEiRKNSt3__112basic_stringIcNS0_11char_traitsIcEENS0_9allocatorIcEEEE, symObjAddr: 0x7C0, symBinAddr: 0x10000CC30, symSize: 0x54 }
  - { offsetInCU: 0x7A29, offset: 0x58DDB, size: 0x8, addend: 0x0, symName: __ZN10HttpServer11closeClientEi, symObjAddr: 0x88C, symBinAddr: 0x10000CC84, symSize: 0x28 }
  - { offsetInCU: 0x7A5D, offset: 0x58E0F, size: 0x8, addend: 0x0, symName: __ZN10HttpServer11getListenFdEv, symObjAddr: 0x8B4, symBinAddr: 0x10000CCAC, symSize: 0xC4 }
  - { offsetInCU: 0x7A90, offset: 0x58E42, size: 0x8, addend: 0x0, symName: __ZNSt3__13mapIiiNS_4lessIiEENS_9allocatorINS_4pairIKiiEEEEEC2B7v160006Ev, symObjAddr: 0x9D8, symBinAddr: 0x10000CD70, symSize: 0x40 }
  - { offsetInCU: 0x7AB8, offset: 0x58E6A, size: 0x8, addend: 0x0, symName: __ZNSt3__119__map_value_compareIiNS_12__value_typeIiiEENS_4lessIiEELb1EEC1B7v160006ES4_, symObjAddr: 0xA18, symBinAddr: 0x10000CDB0, symSize: 0x2C }
  - { offsetInCU: 0x7AF0, offset: 0x58EA2, size: 0x8, addend: 0x0, symName: __ZNSt3__16__treeINS_12__value_typeIiiEENS_19__map_value_compareIiS2_NS_4lessIiEELb1EEENS_9allocatorIS2_EEEC1ERKS6_, symObjAddr: 0xA44, symBinAddr: 0x10000CDDC, symSize: 0x34 }
  - { offsetInCU: 0x7B2A, offset: 0x58EDC, size: 0x8, addend: 0x0, symName: __ZNSt3__119__map_value_compareIiNS_12__value_typeIiiEENS_4lessIiEELb1EEC2B7v160006ES4_, symObjAddr: 0xA78, symBinAddr: 0x10000CE10, symSize: 0x14 }
  - { offsetInCU: 0x7B61, offset: 0x58F13, size: 0x8, addend: 0x0, symName: __ZNSt3__16__treeINS_12__value_typeIiiEENS_19__map_value_compareIiS2_NS_4lessIiEELb1EEENS_9allocatorIS2_EEEC2ERKS6_, symObjAddr: 0xA8C, symBinAddr: 0x10000CE24, symSize: 0x70 }
  - { offsetInCU: 0x7B9A, offset: 0x58F4C, size: 0x8, addend: 0x0, symName: __ZNSt3__117__compressed_pairINS_15__tree_end_nodeIPNS_16__tree_node_baseIPvEEEENS_9allocatorINS_11__tree_nodeINS_12__value_typeIiiEES3_EEEEEC1B7v160006ILb1EvEEv, symObjAddr: 0xAFC, symBinAddr: 0x10000CE94, symSize: 0x2C }
  - { offsetInCU: 0x7BD2, offset: 0x58F84, size: 0x8, addend: 0x0, symName: __ZNSt3__117__compressed_pairImNS_19__map_value_compareIiNS_12__value_typeIiiEENS_4lessIiEELb1EEEEC1B7v160006IiRKS6_EEOT_OT0_, symObjAddr: 0xB28, symBinAddr: 0x10000CEC0, symSize: 0x3C }
  - { offsetInCU: 0x7C29, offset: 0x58FDB, size: 0x8, addend: 0x0, symName: __ZNSt3__16__treeINS_12__value_typeIiiEENS_19__map_value_compareIiS2_NS_4lessIiEELb1EEENS_9allocatorIS2_EEE10__end_nodeB7v160006Ev, symObjAddr: 0xB64, symBinAddr: 0x10000CEFC, symSize: 0x2C }
  - { offsetInCU: 0x7C4D, offset: 0x58FFF, size: 0x8, addend: 0x0, symName: __ZNSt3__16__treeINS_12__value_typeIiiEENS_19__map_value_compareIiS2_NS_4lessIiEELb1EEENS_9allocatorIS2_EEE12__begin_nodeB7v160006Ev, symObjAddr: 0xB90, symBinAddr: 0x10000CF28, symSize: 0x14 }
  - { offsetInCU: 0x7C70, offset: 0x59022, size: 0x8, addend: 0x0, symName: __ZNSt3__117__compressed_pairINS_15__tree_end_nodeIPNS_16__tree_node_baseIPvEEEENS_9allocatorINS_11__tree_nodeINS_12__value_typeIiiEES3_EEEEEC2B7v160006ILb1EvEEv, symObjAddr: 0xBA4, symBinAddr: 0x10000CF3C, symSize: 0x34 }
  - { offsetInCU: 0x7CA3, offset: 0x59055, size: 0x8, addend: 0x0, symName: __ZNSt3__122__compressed_pair_elemINS_9allocatorINS_11__tree_nodeINS_12__value_typeIiiEEPvEEEELi1ELb1EEC2B7v160006ENS_16__value_init_tagE, symObjAddr: 0xC04, symBinAddr: 0x10000CF70, symSize: 0x2C }
  - { offsetInCU: 0x7CD6, offset: 0x59088, size: 0x8, addend: 0x0, symName: __ZNSt3__19allocatorINS_11__tree_nodeINS_12__value_typeIiiEEPvEEEC2B7v160006Ev, symObjAddr: 0xC74, symBinAddr: 0x10000CF9C, symSize: 0x2C }
  - { offsetInCU: 0x7CFF, offset: 0x590B1, size: 0x8, addend: 0x0, symName: __ZNSt3__116__non_trivial_ifILb1ENS_9allocatorINS_11__tree_nodeINS_12__value_typeIiiEEPvEEEEEC2B7v160006Ev, symObjAddr: 0xCA0, symBinAddr: 0x10000CFC8, symSize: 0x14 }
  - { offsetInCU: 0x7D26, offset: 0x590D8, size: 0x8, addend: 0x0, symName: __ZNSt3__117__compressed_pairImNS_19__map_value_compareIiNS_12__value_typeIiiEENS_4lessIiEELb1EEEEC2B7v160006IiRKS6_EEOT_OT0_, symObjAddr: 0xCB4, symBinAddr: 0x10000CFDC, symSize: 0x44 }
  - { offsetInCU: 0x7D7D, offset: 0x5912F, size: 0x8, addend: 0x0, symName: __ZNSt3__122__compressed_pair_elemINS_19__map_value_compareIiNS_12__value_typeIiiEENS_4lessIiEELb1EEELi1ELb1EEC2B7v160006IRKS6_vEEOT_, symObjAddr: 0xD1C, symBinAddr: 0x10000D020, symSize: 0x18 }
  - { offsetInCU: 0x7DBD, offset: 0x5916F, size: 0x8, addend: 0x0, symName: __ZNSt3__117__compressed_pairINS_15__tree_end_nodeIPNS_16__tree_node_baseIPvEEEENS_9allocatorINS_11__tree_nodeINS_12__value_typeIiiEES3_EEEEE5firstB7v160006Ev, symObjAddr: 0xD48, symBinAddr: 0x10000D038, symSize: 0x24 }
  - { offsetInCU: 0x7DE0, offset: 0x59192, size: 0x8, addend: 0x0, symName: __ZNSt3__13mapIiiNS_4lessIiEENS_9allocatorINS_4pairIKiiEEEEED2B7v160006Ev, symObjAddr: 0xD80, symBinAddr: 0x10000D05C, symSize: 0x2C }
  - { offsetInCU: 0x7E09, offset: 0x591BB, size: 0x8, addend: 0x0, symName: __ZNSt3__16__treeINS_12__value_typeIiiEENS_19__map_value_compareIiS2_NS_4lessIiEELb1EEENS_9allocatorIS2_EEED1Ev, symObjAddr: 0xDAC, symBinAddr: 0x10000D088, symSize: 0x2C }
  - { offsetInCU: 0x7E34, offset: 0x591E6, size: 0x8, addend: 0x0, symName: __ZNSt3__16__treeINS_12__value_typeIiiEENS_19__map_value_compareIiS2_NS_4lessIiEELb1EEENS_9allocatorIS2_EEED2Ev, symObjAddr: 0xDD8, symBinAddr: 0x10000D0B4, symSize: 0x38 }
  - { offsetInCU: 0x7E5F, offset: 0x59211, size: 0x8, addend: 0x0, symName: __ZNSt3__16__treeINS_12__value_typeIiiEENS_19__map_value_compareIiS2_NS_4lessIiEELb1EEENS_9allocatorIS2_EEE7destroyEPNS_11__tree_nodeIS2_PvEE, symObjAddr: 0xE10, symBinAddr: 0x10000D0EC, symSize: 0xC0 }
  - { offsetInCU: 0x7EB3, offset: 0x59265, size: 0x8, addend: 0x0, symName: __ZNKSt3__16__treeINS_12__value_typeIiiEENS_19__map_value_compareIiS2_NS_4lessIiEELb1EEENS_9allocatorIS2_EEE6__rootB7v160006Ev, symObjAddr: 0xED0, symBinAddr: 0x10000D1AC, symSize: 0x28 }
  - { offsetInCU: 0x7ED7, offset: 0x59289, size: 0x8, addend: 0x0, symName: __ZNSt3__16__treeINS_12__value_typeIiiEENS_19__map_value_compareIiS2_NS_4lessIiEELb1EEENS_9allocatorIS2_EEE12__node_allocB7v160006Ev, symObjAddr: 0xEF8, symBinAddr: 0x10000D1D4, symSize: 0x28 }
  - { offsetInCU: 0x7F00, offset: 0x592B2, size: 0x8, addend: 0x0, symName: __ZNSt3__116allocator_traitsINS_9allocatorINS_11__tree_nodeINS_12__value_typeIiiEEPvEEEEE7destroyB7v160006INS_4pairIKiiEEvvEEvRS7_PT_, symObjAddr: 0xF20, symBinAddr: 0x10000D1FC, symSize: 0x14 }
  - { offsetInCU: 0x7F3A, offset: 0x592EC, size: 0x8, addend: 0x0, symName: __ZNSt3__122__tree_key_value_typesINS_12__value_typeIiiEEE9__get_ptrB7v160006ERS2_, symObjAddr: 0xF34, symBinAddr: 0x10000D210, symSize: 0x24 }
  - { offsetInCU: 0x7F5D, offset: 0x5930F, size: 0x8, addend: 0x0, symName: __ZNSt3__116allocator_traitsINS_9allocatorINS_11__tree_nodeINS_12__value_typeIiiEEPvEEEEE10deallocateB7v160006ERS7_PS6_m, symObjAddr: 0xF58, symBinAddr: 0x10000D234, symSize: 0x34 }
  - { offsetInCU: 0x7F9E, offset: 0x59350, size: 0x8, addend: 0x0, symName: __ZNSt3__117__compressed_pairINS_15__tree_end_nodeIPNS_16__tree_node_baseIPvEEEENS_9allocatorINS_11__tree_nodeINS_12__value_typeIiiEES3_EEEEE6secondB7v160006Ev, symObjAddr: 0xF8C, symBinAddr: 0x10000D268, symSize: 0x24 }
  - { offsetInCU: 0x7FC2, offset: 0x59374, size: 0x8, addend: 0x0, symName: __ZNSt3__122__compressed_pair_elemINS_9allocatorINS_11__tree_nodeINS_12__value_typeIiiEEPvEEEELi1ELb1EE5__getB7v160006Ev, symObjAddr: 0xFB0, symBinAddr: 0x10000D28C, symSize: 0x14 }
  - { offsetInCU: 0x7FE6, offset: 0x59398, size: 0x8, addend: 0x0, symName: __ZNSt3__112__value_typeIiiE11__get_valueB7v160006Ev, symObjAddr: 0xFC4, symBinAddr: 0x10000D2A0, symSize: 0x14 }
  - { offsetInCU: 0x800A, offset: 0x593BC, size: 0x8, addend: 0x0, symName: __ZNSt3__19allocatorINS_11__tree_nodeINS_12__value_typeIiiEEPvEEE10deallocateB7v160006EPS5_m, symObjAddr: 0xFD8, symBinAddr: 0x10000D2B4, symSize: 0x74 }
  - { offsetInCU: 0x804A, offset: 0x593FC, size: 0x8, addend: 0x0, symName: __ZNKSt3__16__treeINS_12__value_typeIiiEENS_19__map_value_compareIiS2_NS_4lessIiEELb1EEENS_9allocatorIS2_EEE10__end_nodeB7v160006Ev, symObjAddr: 0x10D4, symBinAddr: 0x10000D328, symSize: 0x2C }
  - { offsetInCU: 0x806E, offset: 0x59420, size: 0x8, addend: 0x0, symName: __ZNKSt3__117__compressed_pairINS_15__tree_end_nodeIPNS_16__tree_node_baseIPvEEEENS_9allocatorINS_11__tree_nodeINS_12__value_typeIiiEES3_EEEEE5firstB7v160006Ev, symObjAddr: 0x1100, symBinAddr: 0x10000D354, symSize: 0x24 }
  - { offsetInCU: 0x65F8, offset: 0x5FA76, size: 0x8, addend: 0x0, symName: _main, symObjAddr: 0x0, symBinAddr: 0x10000D378, symSize: 0x53C }
  - { offsetInCU: 0x6703, offset: 0x5FB81, size: 0x8, addend: 0x0, symName: __ZNKSt3__112basic_stringIcNS_11char_traitsIcEENS_9allocatorIcEEE5emptyB7v160006Ev, symObjAddr: 0x648, symBinAddr: 0x10000D8B4, symSize: 0x30 }
  - { offsetInCU: 0x6848, offset: 0x5FCC6, size: 0x8, addend: 0x0, symName: __ZN8ResponseD1Ev, symObjAddr: 0x678, symBinAddr: 0x10000D8E4, symSize: 0x2C }
  - { offsetInCU: 0x6872, offset: 0x5FCF0, size: 0x8, addend: 0x0, symName: __ZN8ResponseD2Ev, symObjAddr: 0x6A4, symBinAddr: 0x10000D910, symSize: 0x6C }
...
